
help/cc_main_32:     file format pei-i386


Disassembly of section .text:

00401000 <_WinMainCRTStartup>:
  401000:	55                   	push   %ebp
  401001:	89 e5                	mov    %esp,%ebp
  401003:	83 ec 28             	sub    $0x28,%esp
  401006:	83 e4 f0             	and    $0xfffffff0,%esp
  401009:	d9 7d fe             	fnstcw -0x2(%ebp)
  40100c:	0f b7 45 fe          	movzwl -0x2(%ebp),%eax
  401010:	66 25 c0 f0          	and    $0xf0c0,%ax
  401014:	66 89 45 fe          	mov    %ax,-0x2(%ebp)
  401018:	0f b7 45 fe          	movzwl -0x2(%ebp),%eax
  40101c:	66 0d 3f 03          	or     $0x33f,%ax
  401020:	66 89 45 fe          	mov    %ax,-0x2(%ebp)
  401024:	d9 6d fe             	fldcw  -0x2(%ebp)
  401027:	c7 04 24 29 13 40 00 	movl   $0x401329,(%esp)
  40102e:	e8 6d 03 00 00       	call   4013a0 <_cygwin_crt0>
  401033:	c7 44 24 08 00 00 00 	movl   $0x0,0x8(%esp)
  40103a:	00 
  40103b:	c7 44 24 04 00 00 00 	movl   $0x0,0x4(%esp)
  401042:	00 
  401043:	c7 04 24 00 00 00 00 	movl   $0x0,(%esp)
  40104a:	e8 81 03 00 00       	call   4013d0 <_cygwin_premain0>
  40104f:	c7 44 24 08 00 00 00 	movl   $0x0,0x8(%esp)
  401056:	00 
  401057:	c7 44 24 04 00 00 00 	movl   $0x0,0x4(%esp)
  40105e:	00 
  40105f:	c7 04 24 00 00 00 00 	movl   $0x0,(%esp)
  401066:	e8 75 03 00 00       	call   4013e0 <_cygwin_premain1>
  40106b:	c7 44 24 08 00 00 00 	movl   $0x0,0x8(%esp)
  401072:	00 
  401073:	c7 44 24 04 00 00 00 	movl   $0x0,0x4(%esp)
  40107a:	00 
  40107b:	c7 04 24 00 00 00 00 	movl   $0x0,(%esp)
  401082:	e8 69 03 00 00       	call   4013f0 <_cygwin_premain2>
  401087:	c7 44 24 08 00 00 00 	movl   $0x0,0x8(%esp)
  40108e:	00 
  40108f:	c7 44 24 04 00 00 00 	movl   $0x0,0x4(%esp)
  401096:	00 
  401097:	c7 04 24 00 00 00 00 	movl   $0x0,(%esp)
  40109e:	e8 5d 03 00 00       	call   401400 <_cygwin_premain3>
  4010a3:	c9                   	leave  
  4010a4:	c3                   	ret    
  4010a5:	90                   	nop
  4010a6:	90                   	nop
  4010a7:	90                   	nop
  4010a8:	90                   	nop
  4010a9:	90                   	nop
  4010aa:	90                   	nop
  4010ab:	90                   	nop
  4010ac:	90                   	nop
  4010ad:	90                   	nop
  4010ae:	90                   	nop
  4010af:	90                   	nop

004010b0 <___gcc_register_frame>:
  4010b0:	55                   	push   %ebp
  4010b1:	89 e5                	mov    %esp,%ebp
  4010b3:	83 ec 08             	sub    $0x8,%esp
  4010b6:	c7 04 24 40 20 40 00 	movl   $0x402040,(%esp)
  4010bd:	e8 36 08 00 00       	call   4018f8 <_GetModuleHandleA@4>
  4010c2:	83 ec 04             	sub    $0x4,%esp
  4010c5:	85 c0                	test   %eax,%eax
  4010c7:	74 67                	je     401130 <___gcc_register_frame+0x80>
  4010c9:	c7 44 24 04 4f 20 40 	movl   $0x40204f,0x4(%esp)
  4010d0:	00 
  4010d1:	89 04 24             	mov    %eax,(%esp)
  4010d4:	e8 27 08 00 00       	call   401900 <_GetProcAddress@8>
  4010d9:	83 ec 08             	sub    $0x8,%esp
  4010dc:	85 c0                	test   %eax,%eax
  4010de:	74 50                	je     401130 <___gcc_register_frame+0x80>
  4010e0:	c7 44 24 04 00 50 40 	movl   $0x405000,0x4(%esp)
  4010e7:	00 
  4010e8:	c7 04 24 00 40 40 00 	movl   $0x404000,(%esp)
  4010ef:	ff d0                	call   *%eax
  4010f1:	a1 a4 20 40 00       	mov    0x4020a4,%eax
  4010f6:	85 c0                	test   %eax,%eax
  4010f8:	74 33                	je     40112d <___gcc_register_frame+0x7d>
  4010fa:	c7 04 24 65 20 40 00 	movl   $0x402065,(%esp)
  401101:	e8 f2 07 00 00       	call   4018f8 <_GetModuleHandleA@4>
  401106:	83 ec 04             	sub    $0x4,%esp
  401109:	85 c0                	test   %eax,%eax
  40110b:	74 33                	je     401140 <___gcc_register_frame+0x90>
  40110d:	c7 44 24 04 72 20 40 	movl   $0x402072,0x4(%esp)
  401114:	00 
  401115:	89 04 24             	mov    %eax,(%esp)
  401118:	e8 e3 07 00 00       	call   401900 <_GetProcAddress@8>
  40111d:	83 ec 08             	sub    $0x8,%esp
  401120:	85 c0                	test   %eax,%eax
  401122:	74 1c                	je     401140 <___gcc_register_frame+0x90>
  401124:	c7 04 24 a4 20 40 00 	movl   $0x4020a4,(%esp)
  40112b:	ff d0                	call   *%eax
  40112d:	c9                   	leave  
  40112e:	c3                   	ret    
  40112f:	90                   	nop
  401130:	a1 00 20 40 00       	mov    0x402000,%eax
  401135:	85 c0                	test   %eax,%eax
  401137:	74 b8                	je     4010f1 <___gcc_register_frame+0x41>
  401139:	eb a5                	jmp    4010e0 <___gcc_register_frame+0x30>
  40113b:	90                   	nop
  40113c:	8d 74 26 00          	lea    0x0(%esi,%eiz,1),%esi
  401140:	a1 08 20 40 00       	mov    0x402008,%eax
  401145:	85 c0                	test   %eax,%eax
  401147:	75 db                	jne    401124 <___gcc_register_frame+0x74>
  401149:	c9                   	leave  
  40114a:	c3                   	ret    
  40114b:	90                   	nop
  40114c:	8d 74 26 00          	lea    0x0(%esi,%eiz,1),%esi

00401150 <___gcc_deregister_frame>:
  401150:	55                   	push   %ebp
  401151:	89 e5                	mov    %esp,%ebp
  401153:	83 ec 08             	sub    $0x8,%esp
  401156:	c7 04 24 40 20 40 00 	movl   $0x402040,(%esp)
  40115d:	e8 96 07 00 00       	call   4018f8 <_GetModuleHandleA@4>
  401162:	83 ec 04             	sub    $0x4,%esp
  401165:	85 c0                	test   %eax,%eax
  401167:	74 27                	je     401190 <___gcc_deregister_frame+0x40>
  401169:	c7 44 24 04 86 20 40 	movl   $0x402086,0x4(%esp)
  401170:	00 
  401171:	89 04 24             	mov    %eax,(%esp)
  401174:	e8 87 07 00 00       	call   401900 <_GetProcAddress@8>
  401179:	83 ec 08             	sub    $0x8,%esp
  40117c:	85 c0                	test   %eax,%eax
  40117e:	74 10                	je     401190 <___gcc_deregister_frame+0x40>
  401180:	c7 04 24 00 40 40 00 	movl   $0x404000,(%esp)
  401187:	ff d0                	call   *%eax
  401189:	c9                   	leave  
  40118a:	c3                   	ret    
  40118b:	90                   	nop
  40118c:	8d 74 26 00          	lea    0x0(%esi,%eiz,1),%esi
  401190:	a1 04 20 40 00       	mov    0x402004,%eax
  401195:	85 c0                	test   %eax,%eax
  401197:	75 e7                	jne    401180 <___gcc_deregister_frame+0x30>
  401199:	c9                   	leave  
  40119a:	c3                   	ret    
  40119b:	90                   	nop
  40119c:	90                   	nop
  40119d:	90                   	nop
  40119e:	90                   	nop
  40119f:	90                   	nop

004011a0 <_pp_main>:
#  define PERL_ASYNC_CHECK
#endif
OP *myop;

static OP * pp_main(register PerlInterpreter* my_perl) 
{
  4011a0:	55                   	push   %ebp
  4011a1:	89 e5                	mov    %esp,%ebp
  4011a3:	53                   	push   %ebx
  4011a4:	83 ec 24             	sub    $0x24,%esp
    register OP* op;
    register int *p = &PL_sig_pending;
  4011a7:	a1 28 71 40 00       	mov    0x407128,%eax

004011a8 <__fu0__PL_thr_key>:
  4011a8:	28 71 40             	sub    %dh,0x40(%ecx)
  4011ab:	00 89 04 24 e8 64    	add    %cl,0x64e82404(%ecx)
  4011b1:	02 00                	add    (%eax),%al
  4011b3:	00 05 a4 03 00 00    	add    %al,0x3a4
  4011b9:	89 45 f4             	mov    %eax,-0xc(%ebp)
#ifdef DEBUGGING
    debstack();
  4011bc:	a1 28 71 40 00       	mov    0x407128,%eax

004011bd <__fu1__PL_thr_key>:
  4011bd:	28 71 40             	sub    %dh,0x40(%ecx)
  4011c0:	00 89 04 24 e8 4f    	add    %cl,0x4fe82404(%ecx)
  4011c6:	02 00                	add    (%eax),%al
  4011c8:	00 89 04 24 e8 67    	add    %cl,0x67e82404(%ecx)
  4011ce:	07                   	pop    %es
  4011cf:	00 00                	add    %al,(%eax)
    debop(myop);
  4011d1:	8b 1d 20 51 40 00    	mov    0x405120,%ebx
  4011d7:	a1 28 71 40 00       	mov    0x407128,%eax

004011d8 <__fu2__PL_thr_key>:
  4011d8:	28 71 40             	sub    %dh,0x40(%ecx)
  4011db:	00 89 04 24 e8 34    	add    %cl,0x34e82404(%ecx)
  4011e1:	02 00                	add    (%eax),%al
  4011e3:	00 89 5c 24 04 89    	add    %cl,-0x76fbdba4(%ecx)
  4011e9:	04 24                	add    $0x24,%al
  4011eb:	e8 40 07 00 00       	call   401930 <_Perl_debop>
#endif
    my_perl->Iop = Perl_pp_enter(my_perl);
  4011f0:	8b 45 08             	mov    0x8(%ebp),%eax
  4011f3:	89 04 24             	mov    %eax,(%esp)
  4011f6:	e8 65 07 00 00       	call   401960 <_Perl_pp_enter>
  4011fb:	89 c2                	mov    %eax,%edx
  4011fd:	8b 45 08             	mov    0x8(%ebp),%eax
  401200:	89 50 04             	mov    %edx,0x4(%eax)
    my_perl->Iop = Perl_pp_nextstate(my_perl);
  401203:	8b 45 08             	mov    0x8(%ebp),%eax
  401206:	89 04 24             	mov    %eax,(%esp)
  401209:	e8 62 07 00 00       	call   401970 <_Perl_pp_nextstate>
  40120e:	89 c2                	mov    %eax,%edx
  401210:	8b 45 08             	mov    0x8(%ebp),%eax
  401213:	89 50 04             	mov    %edx,0x4(%eax)
    my_perl->Iop = Perl_pp_print(my_perl);
  401216:	8b 45 08             	mov    0x8(%ebp),%eax
  401219:	89 04 24             	mov    %eax,(%esp)
  40121c:	e8 57 07 00 00       	call   401978 <_Perl_pp_print>
  401221:	89 c2                	mov    %eax,%edx
  401223:	8b 45 08             	mov    0x8(%ebp),%eax
  401226:	89 50 04             	mov    %edx,0x4(%eax)
    PERL_ASYNC_CHECK;

 maybranch_1:
    op = my_perl->Iop->op_next;
  401229:	8b 45 08             	mov    0x8(%ebp),%eax
  40122c:	8b 40 04             	mov    0x4(%eax),%eax
  40122f:	8b 00                	mov    (%eax),%eax
  401231:	89 45 f8             	mov    %eax,-0x8(%ebp)
    my_perl->Iop = Perl_pp_cond_expr(my_perl);
  401234:	8b 45 08             	mov    0x8(%ebp),%eax
  401237:	89 04 24             	mov    %eax,(%esp)
  40123a:	e8 11 07 00 00       	call   401950 <_Perl_pp_cond_expr>
  40123f:	89 c2                	mov    %eax,%edx
  401241:	8b 45 08             	mov    0x8(%ebp),%eax
  401244:	89 50 04             	mov    %edx,0x4(%eax)
    if (*p)
  401247:	8b 45 f4             	mov    -0xc(%ebp),%eax
  40124a:	8b 00                	mov    (%eax),%eax
  40124c:	85 c0                	test   %eax,%eax
  40124e:	74 0b                	je     40125b <__fu2__PL_thr_key+0x83>
        Perl_despatch_signals(my_perl);
  401250:	8b 45 08             	mov    0x8(%ebp),%eax
  401253:	89 04 24             	mov    %eax,(%esp)
  401256:	e8 e5 06 00 00       	call   401940 <_Perl_despatch_signals>
    if (PL_op == op) /* false */
  40125b:	a1 28 71 40 00       	mov    0x407128,%eax

0040125c <__fu3__PL_thr_key>:
  40125c:	28 71 40             	sub    %dh,0x40(%ecx)
  40125f:	00 89 04 24 e8 b0    	add    %cl,-0x4f17dbfc(%ecx)
  401265:	01 00                	add    %eax,(%eax)
  401267:	00 8b 40 04 3b 45    	add    %cl,0x453b0440(%ebx)
  40126d:	f8                   	clc    
  40126e:	74 3b                	je     4012ab <__fu3__PL_thr_key+0x4f>
        goto next_1;
 other_1:
    my_perl->Iop = Perl_pp_pushmark(my_perl);
  401270:	8b 45 08             	mov    0x8(%ebp),%eax
  401273:	89 04 24             	mov    %eax,(%esp)
  401276:	e8 05 07 00 00       	call   401980 <_Perl_pp_pushmark>
  40127b:	89 c2                	mov    %eax,%edx
  40127d:	8b 45 08             	mov    0x8(%ebp),%eax
  401280:	89 50 04             	mov    %edx,0x4(%eax)
    my_perl->Iop = Perl_pp_const(my_perl);
  401283:	8b 45 08             	mov    0x8(%ebp),%eax
  401286:	89 04 24             	mov    %eax,(%esp)
  401289:	e8 ca 06 00 00       	call   401958 <_Perl_pp_const>
  40128e:	89 c2                	mov    %eax,%edx
  401290:	8b 45 08             	mov    0x8(%ebp),%eax
  401293:	89 50 04             	mov    %edx,0x4(%eax)
    my_perl->Iop = Perl_pp_print(my_perl);
  401296:	8b 45 08             	mov    0x8(%ebp),%eax
  401299:	89 04 24             	mov    %eax,(%esp)
  40129c:	e8 d7 06 00 00       	call   401978 <_Perl_pp_print>
  4012a1:	89 c2                	mov    %eax,%edx
  4012a3:	8b 45 08             	mov    0x8(%ebp),%eax
  4012a6:	89 50 04             	mov    %edx,0x4(%eax)
  4012a9:	eb 4d                	jmp    4012f8 <__fu3__PL_thr_key+0x9c>
    goto leave_1; /* upper scope */

 next_1:
    my_perl->Iop = Perl_pp_enter(my_perl);
  4012ab:	8b 45 08             	mov    0x8(%ebp),%eax
  4012ae:	89 04 24             	mov    %eax,(%esp)
  4012b1:	e8 aa 06 00 00       	call   401960 <_Perl_pp_enter>
  4012b6:	89 c2                	mov    %eax,%edx
  4012b8:	8b 45 08             	mov    0x8(%ebp),%eax
  4012bb:	89 50 04             	mov    %edx,0x4(%eax)
    my_perl->Iop = Perl_pp_nextstate(my_perl);
  4012be:	8b 45 08             	mov    0x8(%ebp),%eax
  4012c1:	89 04 24             	mov    %eax,(%esp)
  4012c4:	e8 a7 06 00 00       	call   401970 <_Perl_pp_nextstate>
  4012c9:	89 c2                	mov    %eax,%edx
  4012cb:	8b 45 08             	mov    0x8(%ebp),%eax
  4012ce:	89 50 04             	mov    %edx,0x4(%eax)
    if (*p)
  4012d1:	8b 45 f4             	mov    -0xc(%ebp),%eax
  4012d4:	8b 00                	mov    (%eax),%eax
  4012d6:	85 c0                	test   %eax,%eax
  4012d8:	74 0b                	je     4012e5 <__fu3__PL_thr_key+0x89>
        Perl_despatch_signals(my_perl);
  4012da:	8b 45 08             	mov    0x8(%ebp),%eax
  4012dd:	89 04 24             	mov    %eax,(%esp)
  4012e0:	e8 5b 06 00 00       	call   401940 <_Perl_despatch_signals>
    my_perl->Iop = Perl_pp_leave(my_perl);
  4012e5:	8b 45 08             	mov    0x8(%ebp),%eax
  4012e8:	89 04 24             	mov    %eax,(%esp)
  4012eb:	e8 78 06 00 00       	call   401968 <_Perl_pp_leave>
  4012f0:	89 c2                	mov    %eax,%edx
  4012f2:	8b 45 08             	mov    0x8(%ebp),%eax
  4012f5:	89 50 04             	mov    %edx,0x4(%eax)
 leave_1:
    my_perl->Iop = Perl_pp_leave(my_perl);
  4012f8:	8b 45 08             	mov    0x8(%ebp),%eax
  4012fb:	89 04 24             	mov    %eax,(%esp)
  4012fe:	e8 65 06 00 00       	call   401968 <_Perl_pp_leave>
  401303:	89 c2                	mov    %eax,%edx
  401305:	8b 45 08             	mov    0x8(%ebp),%eax
  401308:	89 50 04             	mov    %edx,0x4(%eax)

    my_perl->Iop = Perl_pp_leave(my_perl);
  40130b:	8b 45 08             	mov    0x8(%ebp),%eax
  40130e:	89 04 24             	mov    %eax,(%esp)
  401311:	e8 52 06 00 00       	call   401968 <_Perl_pp_leave>
  401316:	89 c2                	mov    %eax,%edx
  401318:	8b 45 08             	mov    0x8(%ebp),%eax
  40131b:	89 50 04             	mov    %edx,0x4(%eax)
    PERL_ASYNC_CHECK;
    return NULL;
  40131e:	b8 00 00 00 00       	mov    $0x0,%eax
}
  401323:	83 c4 24             	add    $0x24,%esp
  401326:	5b                   	pop    %ebx
  401327:	5d                   	pop    %ebp
  401328:	c3                   	ret    

00401329 <_main>:

int
main(int argc, char **argv, char **env)
{
  401329:	8d 4c 24 04          	lea    0x4(%esp),%ecx
  40132d:	83 e4 f0             	and    $0xfffffff0,%esp
  401330:	ff 71 fc             	pushl  -0x4(%ecx)
  401333:	55                   	push   %ebp
  401334:	89 e5                	mov    %esp,%ebp
  401336:	51                   	push   %ecx
  401337:	83 ec 24             	sub    $0x24,%esp
  40133a:	e8 d1 00 00 00       	call   401410 <___main>
    PerlInterpreter *my_perl;
    myop = newOP(OP_ENTER, 0);
  40133f:	a1 28 71 40 00       	mov    0x407128,%eax

00401340 <__fu4__PL_thr_key>:
  401340:	28 71 40             	sub    %dh,0x40(%ecx)
  401343:	00 89 04 24 e8 cc    	add    %cl,-0x3317dbfc(%ecx)
  401349:	00 00                	add    %al,(%eax)
  40134b:	00 c7                	add    %al,%bh
  40134d:	44                   	inc    %esp
  40134e:	24 08                	and    $0x8,%al
  401350:	00 00                	add    %al,(%eax)
  401352:	00 00                	add    %al,(%eax)
  401354:	c7 44 24 04 b8 00 00 	movl   $0xb8,0x4(%esp)
  40135b:	00 
  40135c:	89 04 24             	mov    %eax,(%esp)
  40135f:	e8 e4 05 00 00       	call   401948 <_Perl_newOP>
  401364:	a3 20 51 40 00       	mov    %eax,0x405120
    pp_main(aTHX);
  401369:	a1 28 71 40 00       	mov    0x407128,%eax

0040136a <__fu5__PL_thr_key>:
  40136a:	28 71 40             	sub    %dh,0x40(%ecx)
  40136d:	00 89 04 24 e8 a2    	add    %cl,-0x5d17dbfc(%ecx)
  401373:	00 00                	add    %al,(%eax)
  401375:	00 89 04 24 e8 22    	add    %cl,0x22e82404(%ecx)
  40137b:	fe                   	(bad)  
  40137c:	ff                   	(bad)  
  40137d:	ff 83 c4 24 59 5d    	incl   0x5d5924c4(%ebx)
}
  401383:	8d 61 fc             	lea    -0x4(%ecx),%esp
  401386:	c3                   	ret    
  401387:	90                   	nop

00401388 <___deregister_frame_info>:
  401388:	ff 25 10 71 40 00    	jmp    *0x407110
  40138e:	90                   	nop
  40138f:	90                   	nop

00401390 <___register_frame_info>:
  401390:	ff 25 14 71 40 00    	jmp    *0x407114
  401396:	90                   	nop
  401397:	90                   	nop
	...

004013a0 <_cygwin_crt0>:
  4013a0:	55                   	push   %ebp
  4013a1:	89 e5                	mov    %esp,%ebp
  4013a3:	83 ec 08             	sub    $0x8,%esp
  4013a6:	8b 45 08             	mov    0x8(%ebp),%eax
  4013a9:	c7 44 24 04 00 00 00 	movl   $0x0,0x4(%esp)
  4013b0:	00 
  4013b1:	89 04 24             	mov    %eax,(%esp)
  4013b4:	e8 67 00 00 00       	call   401420 <__cygwin_crt0_common@8>
  4013b9:	83 ec 08             	sub    $0x8,%esp
  4013bc:	ff 15 e4 70 40 00    	call   *0x4070e4
  4013c2:	90                   	nop
  4013c3:	90                   	nop
  4013c4:	90                   	nop
  4013c5:	90                   	nop
  4013c6:	90                   	nop
  4013c7:	90                   	nop
  4013c8:	90                   	nop
  4013c9:	90                   	nop
  4013ca:	90                   	nop
  4013cb:	90                   	nop
  4013cc:	90                   	nop
  4013cd:	90                   	nop
  4013ce:	90                   	nop
  4013cf:	90                   	nop

004013d0 <_cygwin_premain0>:
  4013d0:	55                   	push   %ebp
  4013d1:	89 e5                	mov    %esp,%ebp
  4013d3:	5d                   	pop    %ebp
  4013d4:	c3                   	ret    
  4013d5:	90                   	nop
  4013d6:	90                   	nop
  4013d7:	90                   	nop
  4013d8:	90                   	nop
  4013d9:	90                   	nop
  4013da:	90                   	nop
  4013db:	90                   	nop
  4013dc:	90                   	nop
  4013dd:	90                   	nop
  4013de:	90                   	nop
  4013df:	90                   	nop

004013e0 <_cygwin_premain1>:
  4013e0:	55                   	push   %ebp
  4013e1:	89 e5                	mov    %esp,%ebp
  4013e3:	5d                   	pop    %ebp
  4013e4:	c3                   	ret    
  4013e5:	90                   	nop
  4013e6:	90                   	nop
  4013e7:	90                   	nop
  4013e8:	90                   	nop
  4013e9:	90                   	nop
  4013ea:	90                   	nop
  4013eb:	90                   	nop
  4013ec:	90                   	nop
  4013ed:	90                   	nop
  4013ee:	90                   	nop
  4013ef:	90                   	nop

004013f0 <_cygwin_premain2>:
  4013f0:	55                   	push   %ebp
  4013f1:	89 e5                	mov    %esp,%ebp
  4013f3:	5d                   	pop    %ebp
  4013f4:	c3                   	ret    
  4013f5:	90                   	nop
  4013f6:	90                   	nop
  4013f7:	90                   	nop
  4013f8:	90                   	nop
  4013f9:	90                   	nop
  4013fa:	90                   	nop
  4013fb:	90                   	nop
  4013fc:	90                   	nop
  4013fd:	90                   	nop
  4013fe:	90                   	nop
  4013ff:	90                   	nop

00401400 <_cygwin_premain3>:
  401400:	55                   	push   %ebp
  401401:	89 e5                	mov    %esp,%ebp
  401403:	5d                   	pop    %ebp
  401404:	c3                   	ret    
  401405:	90                   	nop
  401406:	90                   	nop
  401407:	90                   	nop
  401408:	90                   	nop
  401409:	90                   	nop
  40140a:	90                   	nop
  40140b:	90                   	nop
  40140c:	90                   	nop
  40140d:	90                   	nop
  40140e:	90                   	nop
  40140f:	90                   	nop

00401410 <___main>:
  401410:	ff 25 e0 70 40 00    	jmp    *0x4070e0
  401416:	90                   	nop
  401417:	90                   	nop

00401418 <_pthread_getspecific>:
  401418:	ff 25 04 71 40 00    	jmp    *0x407104
  40141e:	90                   	nop
  40141f:	90                   	nop

00401420 <__cygwin_crt0_common@8>:
  401420:	55                   	push   %ebp
  401421:	89 e5                	mov    %esp,%ebp
  401423:	56                   	push   %esi
  401424:	53                   	push   %ebx
  401425:	83 ec 10             	sub    $0x10,%esp
  401428:	8b 5d 0c             	mov    0xc(%ebp),%ebx
  40142b:	8b 75 08             	mov    0x8(%ebp),%esi
  40142e:	c7 04 24 08 00 00 00 	movl   $0x8,(%esp)
  401435:	e8 16 04 00 00       	call   401850 <_cygwin_internal>
  40143a:	85 db                	test   %ebx,%ebx
  40143c:	89 c1                	mov    %eax,%ecx
  40143e:	0f 84 bc 01 00 00    	je     401600 <__cygwin_crt0_common@8+0x1e0>
  401444:	a1 e8 70 40 00       	mov    0x4070e8,%eax
  401449:	85 c9                	test   %ecx,%ecx
  40144b:	c7 43 04 a8 00 00 00 	movl   $0xa8,0x4(%ebx)
  401452:	c7 43 08 ef 03 00 00 	movl   $0x3ef,0x8(%ebx)
  401459:	c7 43 0c 07 00 00 00 	movl   $0x7,0xc(%ebx)
  401460:	89 43 10             	mov    %eax,0x10(%ebx)
  401463:	8b 45 00             	mov    0x0(%ebp),%eax
  401466:	c7 83 80 00 00 00 00 	movl   $0x0,0x80(%ebx)
  40146d:	00 00 00 
  401470:	c7 83 84 00 00 00 e6 	movl   $0xe6,0x84(%ebx)
  401477:	00 00 00 
  40147a:	c7 43 2c 88 19 40 00 	movl   $0x401988,0x2c(%ebx)
  401481:	c7 43 30 94 19 40 00 	movl   $0x401994,0x30(%ebx)
  401488:	c7 43 14 20 50 40 00 	movl   $0x405020,0x14(%ebx)
  40148f:	89 73 28             	mov    %esi,0x28(%ebx)
  401492:	c7 43 48 d0 13 40 00 	movl   $0x4013d0,0x48(%ebx)
  401499:	c7 43 4c e0 13 40 00 	movl   $0x4013e0,0x4c(%ebx)
  4014a0:	c7 43 50 f0 13 40 00 	movl   $0x4013f0,0x50(%ebx)
  4014a7:	c7 43 54 00 14 40 00 	movl   $0x401400,0x54(%ebx)
  4014ae:	c7 43 24 24 50 40 00 	movl   $0x405024,0x24(%ebx)
  4014b5:	89 03                	mov    %eax,(%ebx)
  4014b7:	c7 43 18 70 18 40 00 	movl   $0x401870,0x18(%ebx)
  4014be:	c7 43 1c 78 18 40 00 	movl   $0x401878,0x1c(%ebx)
  4014c5:	c7 43 20 80 18 40 00 	movl   $0x401880,0x20(%ebx)
  4014cc:	c7 43 44 88 18 40 00 	movl   $0x401888,0x44(%ebx)
  4014d3:	0f 84 c1 00 00 00    	je     40159a <__cygwin_crt0_common@8+0x17a>
  4014d9:	8b 51 78             	mov    0x78(%ecx),%edx
  4014dc:	85 d2                	test   %edx,%edx
  4014de:	0f 84 b6 00 00 00    	je     40159a <__cygwin_crt0_common@8+0x17a>
  4014e4:	a1 28 50 40 00       	mov    0x405028,%eax
  4014e9:	85 c0                	test   %eax,%eax
  4014eb:	0f 85 a9 00 00 00    	jne    40159a <__cygwin_crt0_common@8+0x17a>
  4014f1:	a1 20 20 40 00       	mov    0x402020,%eax
  4014f6:	85 c0                	test   %eax,%eax
  4014f8:	0f 84 12 02 00 00    	je     401710 <__cygwin_crt0_common@8+0x2f0>
  4014fe:	a1 24 20 40 00       	mov    0x402024,%eax
  401503:	85 c0                	test   %eax,%eax
  401505:	0f 84 f5 01 00 00    	je     401700 <__cygwin_crt0_common@8+0x2e0>
  40150b:	a1 28 20 40 00       	mov    0x402028,%eax
  401510:	85 c0                	test   %eax,%eax
  401512:	0f 84 d8 01 00 00    	je     4016f0 <__cygwin_crt0_common@8+0x2d0>
  401518:	a1 2c 20 40 00       	mov    0x40202c,%eax
  40151d:	85 c0                	test   %eax,%eax
  40151f:	0f 84 bb 01 00 00    	je     4016e0 <__cygwin_crt0_common@8+0x2c0>
  401525:	a1 30 20 40 00       	mov    0x402030,%eax
  40152a:	85 c0                	test   %eax,%eax
  40152c:	0f 84 9e 01 00 00    	je     4016d0 <__cygwin_crt0_common@8+0x2b0>
  401532:	8b 35 34 20 40 00    	mov    0x402034,%esi
  401538:	85 f6                	test   %esi,%esi
  40153a:	0f 84 80 01 00 00    	je     4016c0 <__cygwin_crt0_common@8+0x2a0>
  401540:	8b 0d 38 20 40 00    	mov    0x402038,%ecx
  401546:	85 c9                	test   %ecx,%ecx
  401548:	0f 84 62 01 00 00    	je     4016b0 <__cygwin_crt0_common@8+0x290>
  40154e:	a1 3c 20 40 00       	mov    0x40203c,%eax
  401553:	85 c0                	test   %eax,%eax
  401555:	0f 84 47 01 00 00    	je     4016a2 <__cygwin_crt0_common@8+0x282>
  40155b:	a1 20 20 40 00       	mov    0x402020,%eax
  401560:	89 02                	mov    %eax,(%edx)
  401562:	a1 24 20 40 00       	mov    0x402024,%eax
  401567:	89 42 04             	mov    %eax,0x4(%edx)
  40156a:	a1 28 20 40 00       	mov    0x402028,%eax
  40156f:	89 42 08             	mov    %eax,0x8(%edx)
  401572:	a1 2c 20 40 00       	mov    0x40202c,%eax
  401577:	89 42 0c             	mov    %eax,0xc(%edx)
  40157a:	a1 30 20 40 00       	mov    0x402030,%eax
  40157f:	89 42 10             	mov    %eax,0x10(%edx)
  401582:	a1 34 20 40 00       	mov    0x402034,%eax
  401587:	89 42 14             	mov    %eax,0x14(%edx)
  40158a:	a1 38 20 40 00       	mov    0x402038,%eax
  40158f:	89 42 18             	mov    %eax,0x18(%edx)
  401592:	a1 3c 20 40 00       	mov    0x40203c,%eax
  401597:	89 42 1c             	mov    %eax,0x1c(%edx)
  40159a:	c7 04 24 00 00 00 00 	movl   $0x0,(%esp)
  4015a1:	e8 52 03 00 00       	call   4018f8 <_GetModuleHandleA@4>
  4015a6:	c7 43 34 00 20 40 00 	movl   $0x402000,0x34(%ebx)
  4015ad:	c7 43 38 a8 20 40 00 	movl   $0x4020a8,0x38(%ebx)
  4015b4:	c7 43 3c 00 50 40 00 	movl   $0x405000,0x3c(%ebx)
  4015bb:	c7 43 40 34 51 40 00 	movl   $0x405134,0x40(%ebx)
  4015c2:	c7 83 94 00 00 00 00 	movl   $0x403000,0x94(%ebx)
  4015c9:	30 40 00 
  4015cc:	89 43 7c             	mov    %eax,0x7c(%ebx)
  4015cf:	83 ec 04             	sub    $0x4,%esp
  4015d2:	c7 83 98 00 00 00 54 	movl   $0x403054,0x98(%ebx)
  4015d9:	30 40 00 
  4015dc:	c7 83 9c 00 00 00 00 	movl   $0x400000,0x9c(%ebx)
  4015e3:	00 40 00 
  4015e6:	e8 75 02 00 00       	call   401860 <__pei386_runtime_relocator>
  4015eb:	8d 65 f8             	lea    -0x8(%ebp),%esp
  4015ee:	b8 01 00 00 00       	mov    $0x1,%eax
  4015f3:	5b                   	pop    %ebx
  4015f4:	5e                   	pop    %esi
  4015f5:	5d                   	pop    %ebp
  4015f6:	c2 08 00             	ret    $0x8
  4015f9:	8d b4 26 00 00 00 00 	lea    0x0(%esi,%eiz,1),%esi
  401600:	c7 40 04 a8 00 00 00 	movl   $0xa8,0x4(%eax)
  401607:	8b 15 e8 70 40 00    	mov    0x4070e8,%edx
  40160d:	85 c9                	test   %ecx,%ecx
  40160f:	c7 40 08 ef 03 00 00 	movl   $0x3ef,0x8(%eax)
  401616:	89 cb                	mov    %ecx,%ebx
  401618:	c7 40 0c 07 00 00 00 	movl   $0x7,0xc(%eax)
  40161f:	c7 80 80 00 00 00 00 	movl   $0x0,0x80(%eax)
  401626:	00 00 00 
  401629:	c7 80 84 00 00 00 e6 	movl   $0xe6,0x84(%eax)
  401630:	00 00 00 
  401633:	c7 40 2c 88 19 40 00 	movl   $0x401988,0x2c(%eax)
  40163a:	c7 40 30 94 19 40 00 	movl   $0x401994,0x30(%eax)
  401641:	c7 40 14 20 50 40 00 	movl   $0x405020,0x14(%eax)
  401648:	8b 80 a4 00 00 00    	mov    0xa4(%eax),%eax
  40164e:	89 71 28             	mov    %esi,0x28(%ecx)
  401651:	c7 41 48 d0 13 40 00 	movl   $0x4013d0,0x48(%ecx)
  401658:	c7 41 4c e0 13 40 00 	movl   $0x4013e0,0x4c(%ecx)
  40165f:	89 02                	mov    %eax,(%edx)
  401661:	8b 45 00             	mov    0x0(%ebp),%eax
  401664:	c7 41 50 f0 13 40 00 	movl   $0x4013f0,0x50(%ecx)
  40166b:	c7 41 54 00 14 40 00 	movl   $0x401400,0x54(%ecx)
  401672:	c7 41 24 24 50 40 00 	movl   $0x405024,0x24(%ecx)
  401679:	89 01                	mov    %eax,(%ecx)
  40167b:	c7 41 18 70 18 40 00 	movl   $0x401870,0x18(%ecx)
  401682:	c7 41 1c 78 18 40 00 	movl   $0x401878,0x1c(%ecx)
  401689:	c7 41 20 80 18 40 00 	movl   $0x401880,0x20(%ecx)
  401690:	c7 41 44 88 18 40 00 	movl   $0x401888,0x44(%ecx)
  401697:	0f 85 3c fe ff ff    	jne    4014d9 <__cygwin_crt0_common@8+0xb9>
  40169d:	e9 f8 fe ff ff       	jmp    40159a <__cygwin_crt0_common@8+0x17a>
  4016a2:	8b 42 1c             	mov    0x1c(%edx),%eax
  4016a5:	a3 3c 20 40 00       	mov    %eax,0x40203c
  4016aa:	e9 ac fe ff ff       	jmp    40155b <__cygwin_crt0_common@8+0x13b>
  4016af:	90                   	nop
  4016b0:	8b 42 18             	mov    0x18(%edx),%eax
  4016b3:	a3 38 20 40 00       	mov    %eax,0x402038
  4016b8:	e9 91 fe ff ff       	jmp    40154e <__cygwin_crt0_common@8+0x12e>
  4016bd:	8d 76 00             	lea    0x0(%esi),%esi
  4016c0:	8b 42 14             	mov    0x14(%edx),%eax
  4016c3:	a3 34 20 40 00       	mov    %eax,0x402034
  4016c8:	e9 73 fe ff ff       	jmp    401540 <__cygwin_crt0_common@8+0x120>
  4016cd:	8d 76 00             	lea    0x0(%esi),%esi
  4016d0:	8b 42 10             	mov    0x10(%edx),%eax
  4016d3:	a3 30 20 40 00       	mov    %eax,0x402030
  4016d8:	e9 55 fe ff ff       	jmp    401532 <__cygwin_crt0_common@8+0x112>
  4016dd:	8d 76 00             	lea    0x0(%esi),%esi
  4016e0:	8b 42 0c             	mov    0xc(%edx),%eax
  4016e3:	a3 2c 20 40 00       	mov    %eax,0x40202c
  4016e8:	e9 38 fe ff ff       	jmp    401525 <__cygwin_crt0_common@8+0x105>
  4016ed:	8d 76 00             	lea    0x0(%esi),%esi
  4016f0:	8b 42 08             	mov    0x8(%edx),%eax
  4016f3:	a3 28 20 40 00       	mov    %eax,0x402028
  4016f8:	e9 1b fe ff ff       	jmp    401518 <__cygwin_crt0_common@8+0xf8>
  4016fd:	8d 76 00             	lea    0x0(%esi),%esi
  401700:	8b 42 04             	mov    0x4(%edx),%eax
  401703:	a3 24 20 40 00       	mov    %eax,0x402024
  401708:	e9 fe fd ff ff       	jmp    40150b <__cygwin_crt0_common@8+0xeb>
  40170d:	8d 76 00             	lea    0x0(%esi),%esi
  401710:	8b 02                	mov    (%edx),%eax
  401712:	a3 20 20 40 00       	mov    %eax,0x402020
  401717:	e9 e2 fd ff ff       	jmp    4014fe <__cygwin_crt0_common@8+0xde>
  40171c:	90                   	nop
  40171d:	90                   	nop
  40171e:	90                   	nop
  40171f:	90                   	nop

00401720 <___dllMain>:
  401720:	55                   	push   %ebp
  401721:	89 e5                	mov    %esp,%ebp
  401723:	83 ec 18             	sub    $0x18,%esp
  401726:	a1 50 50 40 00       	mov    0x405050,%eax
  40172b:	89 44 24 08          	mov    %eax,0x8(%esp)
  40172f:	a1 40 50 40 00       	mov    0x405040,%eax
  401734:	89 44 24 04          	mov    %eax,0x4(%esp)
  401738:	a1 30 50 40 00       	mov    0x405030,%eax
  40173d:	89 04 24             	mov    %eax,(%esp)
  401740:	e8 9b 01 00 00       	call   4018e0 <_DllMain@12>
  401745:	83 ec 0c             	sub    $0xc,%esp
  401748:	c9                   	leave  
  401749:	c3                   	ret    
  40174a:	8d b6 00 00 00 00    	lea    0x0(%esi),%esi

00401750 <__cygwin_dll_entry@12>:
  401750:	55                   	push   %ebp
  401751:	89 e5                	mov    %esp,%ebp
  401753:	53                   	push   %ebx
  401754:	83 ec 14             	sub    $0x14,%esp
  401757:	8b 45 0c             	mov    0xc(%ebp),%eax
  40175a:	8b 4d 08             	mov    0x8(%ebp),%ecx
  40175d:	8b 55 10             	mov    0x10(%ebp),%edx
  401760:	83 f8 01             	cmp    $0x1,%eax
  401763:	0f 84 87 00 00 00    	je     4017f0 <__cygwin_dll_entry@12+0xa0>
  401769:	72 18                	jb     401783 <__cygwin_dll_entry@12+0x33>
  40176b:	83 f8 02             	cmp    $0x2,%eax
  40176e:	74 66                	je     4017d6 <__cygwin_dll_entry@12+0x86>
  401770:	83 f8 03             	cmp    $0x3,%eax
  401773:	bb 01 00 00 00       	mov    $0x1,%ebx
  401778:	74 46                	je     4017c0 <__cygwin_dll_entry@12+0x70>
  40177a:	89 d8                	mov    %ebx,%eax
  40177c:	8b 5d fc             	mov    -0x4(%ebp),%ebx
  40177f:	c9                   	leave  
  401780:	c2 0c 00             	ret    $0xc
  401783:	89 54 24 08          	mov    %edx,0x8(%esp)
  401787:	c7 44 24 04 00 00 00 	movl   $0x0,0x4(%esp)
  40178e:	00 
  40178f:	89 0c 24             	mov    %ecx,(%esp)
  401792:	e8 49 01 00 00       	call   4018e0 <_DllMain@12>
  401797:	83 ec 0c             	sub    $0xc,%esp
  40179a:	85 c0                	test   %eax,%eax
  40179c:	89 c3                	mov    %eax,%ebx
  40179e:	74 da                	je     40177a <__cygwin_dll_entry@12+0x2a>
  4017a0:	a1 60 50 40 00       	mov    0x405060,%eax
  4017a5:	89 04 24             	mov    %eax,(%esp)
  4017a8:	e8 23 01 00 00       	call   4018d0 <_cygwin_detach_dll>
  4017ad:	c7 05 60 50 40 00 ff 	movl   $0xffffffff,0x405060
  4017b4:	ff ff ff 
  4017b7:	eb c1                	jmp    40177a <__cygwin_dll_entry@12+0x2a>
  4017b9:	8d b4 26 00 00 00 00 	lea    0x0(%esi,%eiz,1),%esi
  4017c0:	89 55 10             	mov    %edx,0x10(%ebp)
  4017c3:	8b 5d fc             	mov    -0x4(%ebp),%ebx
  4017c6:	c7 45 0c 03 00 00 00 	movl   $0x3,0xc(%ebp)
  4017cd:	89 4d 08             	mov    %ecx,0x8(%ebp)
  4017d0:	c9                   	leave  
  4017d1:	e9 0a 01 00 00       	jmp    4018e0 <_DllMain@12>
  4017d6:	89 55 10             	mov    %edx,0x10(%ebp)
  4017d9:	8b 5d fc             	mov    -0x4(%ebp),%ebx
  4017dc:	c7 45 0c 02 00 00 00 	movl   $0x2,0xc(%ebp)
  4017e3:	89 4d 08             	mov    %ecx,0x8(%ebp)
  4017e6:	c9                   	leave  
  4017e7:	e9 f4 00 00 00       	jmp    4018e0 <_DllMain@12>
  4017ec:	8d 74 26 00          	lea    0x0(%esi,%eiz,1),%esi
  4017f0:	31 c0                	xor    %eax,%eax
  4017f2:	85 d2                	test   %edx,%edx
  4017f4:	0f 94 c0             	sete   %al
  4017f7:	31 db                	xor    %ebx,%ebx
  4017f9:	89 0d 30 50 40 00    	mov    %ecx,0x405030
  4017ff:	c7 05 40 50 40 00 01 	movl   $0x1,0x405040
  401806:	00 00 00 
  401809:	89 15 50 50 40 00    	mov    %edx,0x405050
  40180f:	a3 28 50 40 00       	mov    %eax,0x405028
  401814:	c7 44 24 04 20 17 40 	movl   $0x401720,0x4(%esp)
  40181b:	00 
  40181c:	89 0c 24             	mov    %ecx,(%esp)
  40181f:	e8 6c 00 00 00       	call   401890 <_cygwin_attach_dll>
  401824:	83 f8 ff             	cmp    $0xffffffff,%eax
  401827:	0f 95 c3             	setne  %bl
  40182a:	a3 60 50 40 00       	mov    %eax,0x405060
  40182f:	89 d8                	mov    %ebx,%eax
  401831:	8b 5d fc             	mov    -0x4(%ebp),%ebx
  401834:	c9                   	leave  
  401835:	c2 0c 00             	ret    $0xc
  401838:	90                   	nop
  401839:	8d b4 26 00 00 00 00 	lea    0x0(%esi,%eiz,1),%esi

00401840 <__cygwin_noncygwin_dll_entry@12>:
  401840:	55                   	push   %ebp
  401841:	89 e5                	mov    %esp,%ebp
  401843:	c9                   	leave  
  401844:	e9 07 ff ff ff       	jmp    401750 <__cygwin_dll_entry@12>
  401849:	90                   	nop
  40184a:	90                   	nop
  40184b:	90                   	nop
  40184c:	90                   	nop
  40184d:	90                   	nop
  40184e:	90                   	nop
  40184f:	90                   	nop

00401850 <_cygwin_internal>:
  401850:	ff 25 f4 70 40 00    	jmp    *0x4070f4
  401856:	90                   	nop
  401857:	90                   	nop
	...

00401860 <__pei386_runtime_relocator>:
  401860:	55                   	push   %ebp
  401861:	89 e5                	mov    %esp,%ebp
  401863:	5d                   	pop    %ebp
  401864:	c3                   	ret    
  401865:	90                   	nop
  401866:	90                   	nop
  401867:	90                   	nop
  401868:	90                   	nop
  401869:	90                   	nop
  40186a:	90                   	nop
  40186b:	90                   	nop
  40186c:	90                   	nop
  40186d:	90                   	nop
  40186e:	90                   	nop
  40186f:	90                   	nop

00401870 <_malloc>:
  401870:	ff 25 00 71 40 00    	jmp    *0x407100
  401876:	90                   	nop
  401877:	90                   	nop

00401878 <_free>:
  401878:	ff 25 fc 70 40 00    	jmp    *0x4070fc
  40187e:	90                   	nop
  40187f:	90                   	nop

00401880 <_realloc>:
  401880:	ff 25 08 71 40 00    	jmp    *0x407108
  401886:	90                   	nop
  401887:	90                   	nop

00401888 <_calloc>:
  401888:	ff 25 ec 70 40 00    	jmp    *0x4070ec
  40188e:	90                   	nop
  40188f:	90                   	nop

00401890 <_cygwin_attach_dll>:
  401890:	55                   	push   %ebp
  401891:	89 e5                	mov    %esp,%ebp
  401893:	53                   	push   %ebx
  401894:	83 ec 14             	sub    $0x14,%esp
  401897:	8b 5d 08             	mov    0x8(%ebp),%ebx
  40189a:	c7 44 24 04 70 50 40 	movl   $0x405070,0x4(%esp)
  4018a1:	00 
  4018a2:	8b 45 0c             	mov    0xc(%ebp),%eax
  4018a5:	89 04 24             	mov    %eax,(%esp)
  4018a8:	e8 73 fb ff ff       	call   401420 <__cygwin_crt0_common@8>
  4018ad:	89 5d 08             	mov    %ebx,0x8(%ebp)
  4018b0:	8b 5d fc             	mov    -0x4(%ebp),%ebx
  4018b3:	c7 45 0c 70 50 40 00 	movl   $0x405070,0xc(%ebp)
  4018ba:	83 ec 08             	sub    $0x8,%esp
  4018bd:	c9                   	leave  
  4018be:	e9 2d 00 00 00       	jmp    4018f0 <_dll_dllcrt0>
  4018c3:	90                   	nop
  4018c4:	90                   	nop
  4018c5:	90                   	nop
  4018c6:	90                   	nop
  4018c7:	90                   	nop
  4018c8:	90                   	nop
  4018c9:	90                   	nop
  4018ca:	90                   	nop
  4018cb:	90                   	nop
  4018cc:	90                   	nop
  4018cd:	90                   	nop
  4018ce:	90                   	nop
  4018cf:	90                   	nop

004018d0 <_cygwin_detach_dll>:
  4018d0:	ff 25 f0 70 40 00    	jmp    *0x4070f0
  4018d6:	90                   	nop
  4018d7:	90                   	nop
	...

004018e0 <_DllMain@12>:
  4018e0:	55                   	push   %ebp
  4018e1:	b8 01 00 00 00       	mov    $0x1,%eax
  4018e6:	89 e5                	mov    %esp,%ebp
  4018e8:	5d                   	pop    %ebp
  4018e9:	c2 0c 00             	ret    $0xc
  4018ec:	90                   	nop
  4018ed:	90                   	nop
  4018ee:	90                   	nop
  4018ef:	90                   	nop

004018f0 <_dll_dllcrt0>:
  4018f0:	ff 25 f8 70 40 00    	jmp    *0x4070f8
  4018f6:	90                   	nop
  4018f7:	90                   	nop

004018f8 <_GetModuleHandleA@4>:
  4018f8:	ff 25 1c 71 40 00    	jmp    *0x40711c
  4018fe:	90                   	nop
  4018ff:	90                   	nop

00401900 <_GetProcAddress@8>:
  401900:	ff 25 20 71 40 00    	jmp    *0x407120
  401906:	90                   	nop
  401907:	90                   	nop

00401908 <.text>:
	...

00401910 <_register_frame_ctor>:
  401910:	55                   	push   %ebp
  401911:	89 e5                	mov    %esp,%ebp
  401913:	5d                   	pop    %ebp
  401914:	e9 97 f7 ff ff       	jmp    4010b0 <___gcc_register_frame>
  401919:	8d b4 26 00 00 00 00 	lea    0x0(%esi,%eiz,1),%esi

00401920 <_deregister_frame_dtor>:
  401920:	55                   	push   %ebp
  401921:	89 e5                	mov    %esp,%ebp
  401923:	5d                   	pop    %ebp
  401924:	e9 27 f8 ff ff       	jmp    401150 <___gcc_deregister_frame>
  401929:	90                   	nop
  40192a:	90                   	nop
  40192b:	90                   	nop
  40192c:	90                   	nop
  40192d:	90                   	nop
  40192e:	90                   	nop
  40192f:	90                   	nop

00401930 <_Perl_debop>:
  401930:	ff 25 2c 71 40 00    	jmp    *0x40712c
  401936:	90                   	nop
  401937:	90                   	nop

00401938 <_Perl_debstack>:
  401938:	ff 25 30 71 40 00    	jmp    *0x407130
  40193e:	90                   	nop
  40193f:	90                   	nop

00401940 <_Perl_despatch_signals>:
  401940:	ff 25 34 71 40 00    	jmp    *0x407134
  401946:	90                   	nop
  401947:	90                   	nop

00401948 <_Perl_newOP>:
  401948:	ff 25 38 71 40 00    	jmp    *0x407138
  40194e:	90                   	nop
  40194f:	90                   	nop

00401950 <_Perl_pp_cond_expr>:
  401950:	ff 25 3c 71 40 00    	jmp    *0x40713c
  401956:	90                   	nop
  401957:	90                   	nop

00401958 <_Perl_pp_const>:
  401958:	ff 25 40 71 40 00    	jmp    *0x407140
  40195e:	90                   	nop
  40195f:	90                   	nop

00401960 <_Perl_pp_enter>:
  401960:	ff 25 44 71 40 00    	jmp    *0x407144
  401966:	90                   	nop
  401967:	90                   	nop

00401968 <_Perl_pp_leave>:
  401968:	ff 25 48 71 40 00    	jmp    *0x407148
  40196e:	90                   	nop
  40196f:	90                   	nop

00401970 <_Perl_pp_nextstate>:
  401970:	ff 25 4c 71 40 00    	jmp    *0x40714c
  401976:	90                   	nop
  401977:	90                   	nop

00401978 <_Perl_pp_print>:
  401978:	ff 25 50 71 40 00    	jmp    *0x407150
  40197e:	90                   	nop
  40197f:	90                   	nop

00401980 <_Perl_pp_pushmark>:
  401980:	ff 25 54 71 40 00    	jmp    *0x407154
  401986:	90                   	nop
  401987:	90                   	nop

00401988 <__CTOR_LIST__>:
  401988:	ff                   	(bad)  
  401989:	ff                   	(bad)  
  40198a:	ff                   	(bad)  
  40198b:	ff 10                	call   *(%eax)

0040198c <.ctors.65535>:
  40198c:	10 19                	adc    %bl,(%ecx)
  40198e:	40                   	inc    %eax
  40198f:	00 00                	add    %al,(%eax)
  401991:	00 00                	add    %al,(%eax)
	...

00401994 <__DTOR_LIST__>:
  401994:	ff                   	(bad)  
  401995:	ff                   	(bad)  
  401996:	ff                   	(bad)  
  401997:	ff 20                	jmp    *(%eax)

00401998 <.dtors.65535>:
  401998:	20 19                	and    %bl,(%ecx)
  40199a:	40                   	inc    %eax
  40199b:	00 00                	add    %al,(%eax)
  40199d:	00 00                	add    %al,(%eax)
	...
