
help/cc_main_nt_32:     file format pei-i386


Disassembly of section .text:

00401000 <_WinMainCRTStartup>:
  401000:	55                   	push   %ebp
  401001:	89 e5                	mov    %esp,%ebp
  401003:	83 ec 28             	sub    $0x28,%esp
  401006:	83 e4 f0             	and    $0xfffffff0,%esp
  401009:	d9 7d fe             	fnstcw -0x2(%ebp)
  40100c:	0f b7 45 fe          	movzwl -0x2(%ebp),%eax
  401010:	66 25 c0 f0          	and    $0xf0c0,%ax
  401014:	66 89 45 fe          	mov    %ax,-0x2(%ebp)
  401018:	0f b7 45 fe          	movzwl -0x2(%ebp),%eax
  40101c:	66 0d 3f 03          	or     $0x33f,%ax
  401020:	66 89 45 fe          	mov    %ax,-0x2(%ebp)
  401024:	d9 6d fe             	fldcw  -0x2(%ebp)
  401027:	c7 04 24 c2 12 40 00 	movl   $0x4012c2,(%esp)
  40102e:	e8 cd 02 00 00       	call   401300 <_cygwin_crt0>
  401033:	c7 44 24 08 00 00 00 	movl   $0x0,0x8(%esp)
  40103a:	00 
  40103b:	c7 44 24 04 00 00 00 	movl   $0x0,0x4(%esp)
  401042:	00 
  401043:	c7 04 24 00 00 00 00 	movl   $0x0,(%esp)
  40104a:	e8 e1 02 00 00       	call   401330 <_cygwin_premain0>
  40104f:	c7 44 24 08 00 00 00 	movl   $0x0,0x8(%esp)
  401056:	00 
  401057:	c7 44 24 04 00 00 00 	movl   $0x0,0x4(%esp)
  40105e:	00 
  40105f:	c7 04 24 00 00 00 00 	movl   $0x0,(%esp)
  401066:	e8 d5 02 00 00       	call   401340 <_cygwin_premain1>
  40106b:	c7 44 24 08 00 00 00 	movl   $0x0,0x8(%esp)
  401072:	00 
  401073:	c7 44 24 04 00 00 00 	movl   $0x0,0x4(%esp)
  40107a:	00 
  40107b:	c7 04 24 00 00 00 00 	movl   $0x0,(%esp)
  401082:	e8 c9 02 00 00       	call   401350 <_cygwin_premain2>
  401087:	c7 44 24 08 00 00 00 	movl   $0x0,0x8(%esp)
  40108e:	00 
  40108f:	c7 44 24 04 00 00 00 	movl   $0x0,0x4(%esp)
  401096:	00 
  401097:	c7 04 24 00 00 00 00 	movl   $0x0,(%esp)
  40109e:	e8 bd 02 00 00       	call   401360 <_cygwin_premain3>
  4010a3:	c9                   	leave  
  4010a4:	c3                   	ret    
  4010a5:	90                   	nop
  4010a6:	90                   	nop
  4010a7:	90                   	nop
  4010a8:	90                   	nop
  4010a9:	90                   	nop
  4010aa:	90                   	nop
  4010ab:	90                   	nop
  4010ac:	90                   	nop
  4010ad:	90                   	nop
  4010ae:	90                   	nop
  4010af:	90                   	nop

004010b0 <___gcc_register_frame>:
  4010b0:	55                   	push   %ebp
  4010b1:	89 e5                	mov    %esp,%ebp
  4010b3:	83 ec 08             	sub    $0x8,%esp
  4010b6:	c7 04 24 40 20 40 00 	movl   $0x402040,(%esp)
  4010bd:	e8 96 07 00 00       	call   401858 <_GetModuleHandleA@4>
  4010c2:	83 ec 04             	sub    $0x4,%esp
  4010c5:	85 c0                	test   %eax,%eax
  4010c7:	74 67                	je     401130 <___gcc_register_frame+0x80>
  4010c9:	c7 44 24 04 4f 20 40 	movl   $0x40204f,0x4(%esp)
  4010d0:	00 
  4010d1:	89 04 24             	mov    %eax,(%esp)
  4010d4:	e8 87 07 00 00       	call   401860 <_GetProcAddress@8>
  4010d9:	83 ec 08             	sub    $0x8,%esp
  4010dc:	85 c0                	test   %eax,%eax
  4010de:	74 50                	je     401130 <___gcc_register_frame+0x80>
  4010e0:	c7 44 24 04 00 50 40 	movl   $0x405000,0x4(%esp)
  4010e7:	00 
  4010e8:	c7 04 24 00 40 40 00 	movl   $0x404000,(%esp)
  4010ef:	ff d0                	call   *%eax
  4010f1:	a1 a4 20 40 00       	mov    0x4020a4,%eax
  4010f6:	85 c0                	test   %eax,%eax
  4010f8:	74 33                	je     40112d <___gcc_register_frame+0x7d>
  4010fa:	c7 04 24 65 20 40 00 	movl   $0x402065,(%esp)
  401101:	e8 52 07 00 00       	call   401858 <_GetModuleHandleA@4>
  401106:	83 ec 04             	sub    $0x4,%esp
  401109:	85 c0                	test   %eax,%eax
  40110b:	74 33                	je     401140 <___gcc_register_frame+0x90>
  40110d:	c7 44 24 04 72 20 40 	movl   $0x402072,0x4(%esp)
  401114:	00 
  401115:	89 04 24             	mov    %eax,(%esp)
  401118:	e8 43 07 00 00       	call   401860 <_GetProcAddress@8>
  40111d:	83 ec 08             	sub    $0x8,%esp
  401120:	85 c0                	test   %eax,%eax
  401122:	74 1c                	je     401140 <___gcc_register_frame+0x90>
  401124:	c7 04 24 a4 20 40 00 	movl   $0x4020a4,(%esp)
  40112b:	ff d0                	call   *%eax
  40112d:	c9                   	leave  
  40112e:	c3                   	ret    
  40112f:	90                   	nop
  401130:	a1 00 20 40 00       	mov    0x402000,%eax
  401135:	85 c0                	test   %eax,%eax
  401137:	74 b8                	je     4010f1 <___gcc_register_frame+0x41>
  401139:	eb a5                	jmp    4010e0 <___gcc_register_frame+0x30>
  40113b:	90                   	nop
  40113c:	8d 74 26 00          	lea    0x0(%esi,%eiz,1),%esi
  401140:	a1 08 20 40 00       	mov    0x402008,%eax
  401145:	85 c0                	test   %eax,%eax
  401147:	75 db                	jne    401124 <___gcc_register_frame+0x74>
  401149:	c9                   	leave  
  40114a:	c3                   	ret    
  40114b:	90                   	nop
  40114c:	8d 74 26 00          	lea    0x0(%esi,%eiz,1),%esi

00401150 <___gcc_deregister_frame>:
  401150:	55                   	push   %ebp
  401151:	89 e5                	mov    %esp,%ebp
  401153:	83 ec 08             	sub    $0x8,%esp
  401156:	c7 04 24 40 20 40 00 	movl   $0x402040,(%esp)
  40115d:	e8 f6 06 00 00       	call   401858 <_GetModuleHandleA@4>
  401162:	83 ec 04             	sub    $0x4,%esp
  401165:	85 c0                	test   %eax,%eax
  401167:	74 27                	je     401190 <___gcc_deregister_frame+0x40>
  401169:	c7 44 24 04 86 20 40 	movl   $0x402086,0x4(%esp)
  401170:	00 
  401171:	89 04 24             	mov    %eax,(%esp)
  401174:	e8 e7 06 00 00       	call   401860 <_GetProcAddress@8>
  401179:	83 ec 08             	sub    $0x8,%esp
  40117c:	85 c0                	test   %eax,%eax
  40117e:	74 10                	je     401190 <___gcc_deregister_frame+0x40>
  401180:	c7 04 24 00 40 40 00 	movl   $0x404000,(%esp)
  401187:	ff d0                	call   *%eax
  401189:	c9                   	leave  
  40118a:	c3                   	ret    
  40118b:	90                   	nop
  40118c:	8d 74 26 00          	lea    0x0(%esi,%eiz,1),%esi
  401190:	a1 04 20 40 00       	mov    0x402004,%eax
  401195:	85 c0                	test   %eax,%eax
  401197:	75 e7                	jne    401180 <___gcc_deregister_frame+0x30>
  401199:	c9                   	leave  
  40119a:	c3                   	ret    
  40119b:	90                   	nop
  40119c:	90                   	nop
  40119d:	90                   	nop
  40119e:	90                   	nop
  40119f:	90                   	nop

004011a0 <_pp_main>:
#  define PERL_ASYNC_CHECK
#endif
OP *myop;

static OP * pp_main() 
{
  4011a0:	55                   	push   %ebp
  4011a1:	89 e5                	mov    %esp,%ebp
  4011a3:	83 ec 18             	sub    $0x18,%esp
    register OP* op; 
    register int *plop = &PL_op;
  4011a6:	c7 45 f8 30 71 40 00 	movl   $0x407130,-0x8(%ebp)

004011a9 <__fu0__PL_op>:
  4011a9:	30 71 40             	xor    %dh,0x40(%ecx)
  4011ac:	00 c7                	add    %al,%bh
    register int *p = &PL_sig_pending;
  4011ae:	45                   	inc    %ebp
  4011af:	f4                   	hlt    

004011b0 <__fu18__PL_sig_pending>:
  4011b0:	34 71                	xor    $0x71,%al
  4011b2:	40                   	inc    %eax
  4011b3:	00 e8                	add    %ch,%al

#ifdef DEBUGGING
    debstack();
  4011b5:	df 06                	fild   (%esi)
  4011b7:	00 00                	add    %al,(%eax)
    debop(myop);
  4011b9:	a1 20 51 40 00       	mov    0x405120,%eax
  4011be:	89 04 24             	mov    %eax,(%esp)
  4011c1:	e8 ca 06 00 00       	call   401890 <_Perl_debop>
#endif

    *plop = Perl_pp_enter();
  4011c6:	e8 ed 06 00 00       	call   4018b8 <_Perl_pp_enter>
  4011cb:	89 c2                	mov    %eax,%edx
  4011cd:	8b 45 f8             	mov    -0x8(%ebp),%eax
  4011d0:	89 10                	mov    %edx,(%eax)
    PL_op = Perl_pp_nextstate();
  4011d2:	e8 f9 06 00 00       	call   4018d0 <_Perl_pp_nextstate>
  4011d7:	a3 30 71 40 00       	mov    %eax,0x407130

004011d8 <__fu1__PL_op>:
  4011d8:	30 71 40             	xor    %dh,0x40(%ecx)
  4011db:	00 e8                	add    %ch,%al
    *plop = Perl_pp_const();
  4011dd:	cf                   	iret   
  4011de:	06                   	push   %es
  4011df:	00 00                	add    %al,(%eax)
  4011e1:	89 c2                	mov    %eax,%edx
  4011e3:	8b 45 f8             	mov    -0x8(%ebp),%eax
  4011e6:	89 10                	mov    %edx,(%eax)
    PL_op = Perl_pp_padsv();
  4011e8:	e8 eb 06 00 00       	call   4018d8 <_Perl_pp_padsv>
  4011ed:	a3 30 71 40 00       	mov    %eax,0x407130

004011ee <__fu2__PL_op>:
  4011ee:	30 71 40             	xor    %dh,0x40(%ecx)
  4011f1:	00 e8                	add    %ch,%al
    PL_op = Perl_pp_sassign();
  4011f3:	f9                   	stc    
  4011f4:	06                   	push   %es
  4011f5:	00 00                	add    %al,(%eax)
  4011f7:	a3 30 71 40 00       	mov    %eax,0x407130

004011f8 <__fu3__PL_op>:
  4011f8:	30 71 40             	xor    %dh,0x40(%ecx)
  4011fb:	00 e8                	add    %ch,%al
    PL_op = Perl_pp_nextstate();
  4011fd:	cf                   	iret   
  4011fe:	06                   	push   %es
  4011ff:	00 00                	add    %al,(%eax)
  401201:	a3 30 71 40 00       	mov    %eax,0x407130

00401202 <__fu4__PL_op>:
  401202:	30 71 40             	xor    %dh,0x40(%ecx)
  401205:	00 8b 45 f4 8b 00    	add    %cl,0x8bf445(%ebx)
    if (*p)
  40120b:	85 c0                	test   %eax,%eax
  40120d:	74 05                	je     401214 <__fu4__PL_op+0x12>
        Perl_despatch_signals();
  40120f:	e8 8c 06 00 00       	call   4018a0 <_Perl_despatch_signals>
    PL_op = Perl_pp_padsv();
  401214:	e8 bf 06 00 00       	call   4018d8 <_Perl_pp_padsv>
  401219:	a3 30 71 40 00       	mov    %eax,0x407130

0040121a <__fu5__PL_op>:
  40121a:	30 71 40             	xor    %dh,0x40(%ecx)
  40121d:	00 e8                	add    %ch,%al
    PL_op = Perl_pp_const();
  40121f:	8d 06                	lea    (%esi),%eax
  401221:	00 00                	add    %al,(%eax)
  401223:	a3 30 71 40 00       	mov    %eax,0x407130

00401224 <__fu6__PL_op>:
  401224:	30 71 40             	xor    %dh,0x40(%ecx)
  401227:	00 e8                	add    %ch,%al
    PL_op = Perl_pp_gt();
  401229:	93                   	xchg   %eax,%ebx
  40122a:	06                   	push   %es
  40122b:	00 00                	add    %al,(%eax)
  40122d:	a3 30 71 40 00       	mov    %eax,0x407130

0040122e <__fu7__PL_op>:
  40122e:	30 71 40             	xor    %dh,0x40(%ecx)
  401231:	00 a1 30 71 40 00    	add    %ah,0x407130(%ecx)

00401233 <__fu8__PL_op>:

 maybranch_1:
    op = PL_op->op_next;
  401233:	30 71 40             	xor    %dh,0x40(%ecx)
  401236:	00 8b 00 89 45 fc    	add    %cl,-0x3ba7700(%ebx)
    PL_op = Perl_pp_cond_expr();
  40123c:	e8 67 06 00 00       	call   4018a8 <_Perl_pp_cond_expr>
  401241:	a3 30 71 40 00       	mov    %eax,0x407130

00401242 <__fu9__PL_op>:
  401242:	30 71 40             	xor    %dh,0x40(%ecx)
  401245:	00 8b 45 f4 8b 00    	add    %cl,0x8bf445(%ebx)
    if (*p)
  40124b:	85 c0                	test   %eax,%eax
  40124d:	74 05                	je     401254 <__fu9__PL_op+0x12>
        Perl_despatch_signals();
  40124f:	e8 4c 06 00 00       	call   4018a0 <_Perl_despatch_signals>
    if (PL_op == op) /* false */
  401254:	a1 30 71 40 00       	mov    0x407130,%eax

00401255 <__fu10__PL_op>:
  401255:	30 71 40             	xor    %dh,0x40(%ecx)
  401258:	00 3b                	add    %bh,(%ebx)
  40125a:	45                   	inc    %ebp
  40125b:	fc                   	cld    
  40125c:	74 20                	je     40127e <__fu13__PL_op+0x6>
        goto next_1;
 other_1:
    PL_op = Perl_pp_pushmark();
  40125e:	e8 85 06 00 00       	call   4018e8 <_Perl_pp_pushmark>
  401263:	a3 30 71 40 00       	mov    %eax,0x407130

00401264 <__fu11__PL_op>:
  401264:	30 71 40             	xor    %dh,0x40(%ecx)
  401267:	00 e8                	add    %ch,%al
    PL_op = Perl_pp_const();
  401269:	43                   	inc    %ebx
  40126a:	06                   	push   %es
  40126b:	00 00                	add    %al,(%eax)
  40126d:	a3 30 71 40 00       	mov    %eax,0x407130

0040126e <__fu12__PL_op>:
  40126e:	30 71 40             	xor    %dh,0x40(%ecx)
  401271:	00 e8                	add    %ch,%al
    PL_op = Perl_pp_print();
  401273:	69 06 00 00 a3 30    	imul   $0x30a30000,(%esi),%eax

00401278 <__fu13__PL_op>:
  401278:	30 71 40             	xor    %dh,0x40(%ecx)
  40127b:	00 eb                	add    %ch,%bl
  40127d:	2c e8                	sub    $0xe8,%al
    goto leave_1; /* upper scope */

 next_1:
    PL_op = Perl_pp_enter();
  40127f:	35 06 00 00 a3       	xor    $0xa3000006,%eax

00401284 <__fu14__PL_op>:
  401284:	30 71 40             	xor    %dh,0x40(%ecx)
  401287:	00 e8                	add    %ch,%al
    PL_op = Perl_pp_nextstate();
  401289:	43                   	inc    %ebx
  40128a:	06                   	push   %es
  40128b:	00 00                	add    %al,(%eax)
  40128d:	a3 30 71 40 00       	mov    %eax,0x407130

0040128e <__fu15__PL_op>:
  40128e:	30 71 40             	xor    %dh,0x40(%ecx)
  401291:	00 8b 45 f4 8b 00    	add    %cl,0x8bf445(%ebx)
    if (*p)
  401297:	85 c0                	test   %eax,%eax
  401299:	74 05                	je     4012a0 <__fu15__PL_op+0x12>
        Perl_despatch_signals();
  40129b:	e8 00 06 00 00       	call   4018a0 <_Perl_despatch_signals>
    PL_op = Perl_pp_leave();
  4012a0:	e8 23 06 00 00       	call   4018c8 <_Perl_pp_leave>
  4012a5:	a3 30 71 40 00       	mov    %eax,0x407130

004012a6 <__fu16__PL_op>:
  4012a6:	30 71 40             	xor    %dh,0x40(%ecx)
  4012a9:	00 e8                	add    %ch,%al
 leave_1:
    PL_op = Perl_pp_leave();
  4012ab:	19 06                	sbb    %eax,(%esi)
  4012ad:	00 00                	add    %al,(%eax)
  4012af:	a3 30 71 40 00       	mov    %eax,0x407130

004012b0 <__fu17__PL_op>:
  4012b0:	30 71 40             	xor    %dh,0x40(%ecx)
  4012b3:	00 c6                	add    %al,%dh

    TAINT_NOT;
  4012b5:	05 38 71 40 00       	add    $0x407138,%eax

004012b6 <__fu19__PL_tainted>:
  4012b6:	38 71 40             	cmp    %dh,0x40(%ecx)
  4012b9:	00 00                	add    %al,(%eax)
    return NULL;
  4012bb:	b8 00 00 00 00       	mov    $0x0,%eax
}
  4012c0:	c9                   	leave  
  4012c1:	c3                   	ret    

004012c2 <_main>:

int
main(int argc, char **argv, char **env)
{
  4012c2:	8d 4c 24 04          	lea    0x4(%esp),%ecx
  4012c6:	83 e4 f0             	and    $0xfffffff0,%esp
  4012c9:	ff 71 fc             	pushl  -0x4(%ecx)
  4012cc:	55                   	push   %ebp
  4012cd:	89 e5                	mov    %esp,%ebp
  4012cf:	51                   	push   %ecx
  4012d0:	83 ec 14             	sub    $0x14,%esp
  4012d3:	e8 98 00 00 00       	call   401370 <___main>
    int a = 0;
  4012d8:	c7 45 f8 00 00 00 00 	movl   $0x0,-0x8(%ebp)
    pp_main();
  4012df:	e8 bc fe ff ff       	call   4011a0 <_pp_main>
    return a;
  4012e4:	8b 45 f8             	mov    -0x8(%ebp),%eax
}
  4012e7:	83 c4 14             	add    $0x14,%esp
  4012ea:	59                   	pop    %ecx
  4012eb:	5d                   	pop    %ebp
  4012ec:	8d 61 fc             	lea    -0x4(%ecx),%esp
  4012ef:	c3                   	ret    

004012f0 <___deregister_frame_info>:
  4012f0:	ff 25 18 71 40 00    	jmp    *0x407118
  4012f6:	90                   	nop
  4012f7:	90                   	nop

004012f8 <___register_frame_info>:
  4012f8:	ff 25 1c 71 40 00    	jmp    *0x40711c
  4012fe:	90                   	nop
  4012ff:	90                   	nop

00401300 <_cygwin_crt0>:
  401300:	55                   	push   %ebp
  401301:	89 e5                	mov    %esp,%ebp
  401303:	83 ec 08             	sub    $0x8,%esp
  401306:	8b 45 08             	mov    0x8(%ebp),%eax
  401309:	c7 44 24 04 00 00 00 	movl   $0x0,0x4(%esp)
  401310:	00 
  401311:	89 04 24             	mov    %eax,(%esp)
  401314:	e8 67 00 00 00       	call   401380 <__cygwin_crt0_common@8>
  401319:	83 ec 08             	sub    $0x8,%esp
  40131c:	ff 15 f0 70 40 00    	call   *0x4070f0
  401322:	90                   	nop
  401323:	90                   	nop
  401324:	90                   	nop
  401325:	90                   	nop
  401326:	90                   	nop
  401327:	90                   	nop
  401328:	90                   	nop
  401329:	90                   	nop
  40132a:	90                   	nop
  40132b:	90                   	nop
  40132c:	90                   	nop
  40132d:	90                   	nop
  40132e:	90                   	nop
  40132f:	90                   	nop

00401330 <_cygwin_premain0>:
  401330:	55                   	push   %ebp
  401331:	89 e5                	mov    %esp,%ebp
  401333:	5d                   	pop    %ebp
  401334:	c3                   	ret    
  401335:	90                   	nop
  401336:	90                   	nop
  401337:	90                   	nop
  401338:	90                   	nop
  401339:	90                   	nop
  40133a:	90                   	nop
  40133b:	90                   	nop
  40133c:	90                   	nop
  40133d:	90                   	nop
  40133e:	90                   	nop
  40133f:	90                   	nop

00401340 <_cygwin_premain1>:
  401340:	55                   	push   %ebp
  401341:	89 e5                	mov    %esp,%ebp
  401343:	5d                   	pop    %ebp
  401344:	c3                   	ret    
  401345:	90                   	nop
  401346:	90                   	nop
  401347:	90                   	nop
  401348:	90                   	nop
  401349:	90                   	nop
  40134a:	90                   	nop
  40134b:	90                   	nop
  40134c:	90                   	nop
  40134d:	90                   	nop
  40134e:	90                   	nop
  40134f:	90                   	nop

00401350 <_cygwin_premain2>:
  401350:	55                   	push   %ebp
  401351:	89 e5                	mov    %esp,%ebp
  401353:	5d                   	pop    %ebp
  401354:	c3                   	ret    
  401355:	90                   	nop
  401356:	90                   	nop
  401357:	90                   	nop
  401358:	90                   	nop
  401359:	90                   	nop
  40135a:	90                   	nop
  40135b:	90                   	nop
  40135c:	90                   	nop
  40135d:	90                   	nop
  40135e:	90                   	nop
  40135f:	90                   	nop

00401360 <_cygwin_premain3>:
  401360:	55                   	push   %ebp
  401361:	89 e5                	mov    %esp,%ebp
  401363:	5d                   	pop    %ebp
  401364:	c3                   	ret    
  401365:	90                   	nop
  401366:	90                   	nop
  401367:	90                   	nop
  401368:	90                   	nop
  401369:	90                   	nop
  40136a:	90                   	nop
  40136b:	90                   	nop
  40136c:	90                   	nop
  40136d:	90                   	nop
  40136e:	90                   	nop
  40136f:	90                   	nop

00401370 <___main>:
  401370:	ff 25 ec 70 40 00    	jmp    *0x4070ec
  401376:	90                   	nop
  401377:	90                   	nop
	...

00401380 <__cygwin_crt0_common@8>:
  401380:	55                   	push   %ebp
  401381:	89 e5                	mov    %esp,%ebp
  401383:	56                   	push   %esi
  401384:	53                   	push   %ebx
  401385:	83 ec 10             	sub    $0x10,%esp
  401388:	8b 5d 0c             	mov    0xc(%ebp),%ebx
  40138b:	8b 75 08             	mov    0x8(%ebp),%esi
  40138e:	c7 04 24 08 00 00 00 	movl   $0x8,(%esp)
  401395:	e8 16 04 00 00       	call   4017b0 <_cygwin_internal>
  40139a:	85 db                	test   %ebx,%ebx
  40139c:	89 c1                	mov    %eax,%ecx
  40139e:	0f 84 bc 01 00 00    	je     401560 <__cygwin_crt0_common@8+0x1e0>
  4013a4:	a1 f4 70 40 00       	mov    0x4070f4,%eax
  4013a9:	85 c9                	test   %ecx,%ecx
  4013ab:	c7 43 04 a8 00 00 00 	movl   $0xa8,0x4(%ebx)
  4013b2:	c7 43 08 ef 03 00 00 	movl   $0x3ef,0x8(%ebx)
  4013b9:	c7 43 0c 07 00 00 00 	movl   $0x7,0xc(%ebx)
  4013c0:	89 43 10             	mov    %eax,0x10(%ebx)
  4013c3:	8b 45 00             	mov    0x0(%ebp),%eax
  4013c6:	c7 83 80 00 00 00 00 	movl   $0x0,0x80(%ebx)
  4013cd:	00 00 00 
  4013d0:	c7 83 84 00 00 00 e6 	movl   $0xe6,0x84(%ebx)
  4013d7:	00 00 00 
  4013da:	c7 43 2c f8 18 40 00 	movl   $0x4018f8,0x2c(%ebx)
  4013e1:	c7 43 30 04 19 40 00 	movl   $0x401904,0x30(%ebx)
  4013e8:	c7 43 14 20 50 40 00 	movl   $0x405020,0x14(%ebx)
  4013ef:	89 73 28             	mov    %esi,0x28(%ebx)
  4013f2:	c7 43 48 30 13 40 00 	movl   $0x401330,0x48(%ebx)
  4013f9:	c7 43 4c 40 13 40 00 	movl   $0x401340,0x4c(%ebx)
  401400:	c7 43 50 50 13 40 00 	movl   $0x401350,0x50(%ebx)
  401407:	c7 43 54 60 13 40 00 	movl   $0x401360,0x54(%ebx)
  40140e:	c7 43 24 24 50 40 00 	movl   $0x405024,0x24(%ebx)
  401415:	89 03                	mov    %eax,(%ebx)
  401417:	c7 43 18 d0 17 40 00 	movl   $0x4017d0,0x18(%ebx)
  40141e:	c7 43 1c d8 17 40 00 	movl   $0x4017d8,0x1c(%ebx)
  401425:	c7 43 20 e0 17 40 00 	movl   $0x4017e0,0x20(%ebx)
  40142c:	c7 43 44 e8 17 40 00 	movl   $0x4017e8,0x44(%ebx)
  401433:	0f 84 c1 00 00 00    	je     4014fa <__cygwin_crt0_common@8+0x17a>
  401439:	8b 51 78             	mov    0x78(%ecx),%edx
  40143c:	85 d2                	test   %edx,%edx
  40143e:	0f 84 b6 00 00 00    	je     4014fa <__cygwin_crt0_common@8+0x17a>
  401444:	a1 28 50 40 00       	mov    0x405028,%eax
  401449:	85 c0                	test   %eax,%eax
  40144b:	0f 85 a9 00 00 00    	jne    4014fa <__cygwin_crt0_common@8+0x17a>
  401451:	a1 20 20 40 00       	mov    0x402020,%eax
  401456:	85 c0                	test   %eax,%eax
  401458:	0f 84 12 02 00 00    	je     401670 <__cygwin_crt0_common@8+0x2f0>
  40145e:	a1 24 20 40 00       	mov    0x402024,%eax
  401463:	85 c0                	test   %eax,%eax
  401465:	0f 84 f5 01 00 00    	je     401660 <__cygwin_crt0_common@8+0x2e0>
  40146b:	a1 28 20 40 00       	mov    0x402028,%eax
  401470:	85 c0                	test   %eax,%eax
  401472:	0f 84 d8 01 00 00    	je     401650 <__cygwin_crt0_common@8+0x2d0>
  401478:	a1 2c 20 40 00       	mov    0x40202c,%eax
  40147d:	85 c0                	test   %eax,%eax
  40147f:	0f 84 bb 01 00 00    	je     401640 <__cygwin_crt0_common@8+0x2c0>
  401485:	a1 30 20 40 00       	mov    0x402030,%eax
  40148a:	85 c0                	test   %eax,%eax
  40148c:	0f 84 9e 01 00 00    	je     401630 <__cygwin_crt0_common@8+0x2b0>
  401492:	8b 35 34 20 40 00    	mov    0x402034,%esi
  401498:	85 f6                	test   %esi,%esi
  40149a:	0f 84 80 01 00 00    	je     401620 <__cygwin_crt0_common@8+0x2a0>
  4014a0:	8b 0d 38 20 40 00    	mov    0x402038,%ecx
  4014a6:	85 c9                	test   %ecx,%ecx
  4014a8:	0f 84 62 01 00 00    	je     401610 <__cygwin_crt0_common@8+0x290>
  4014ae:	a1 3c 20 40 00       	mov    0x40203c,%eax
  4014b3:	85 c0                	test   %eax,%eax
  4014b5:	0f 84 47 01 00 00    	je     401602 <__cygwin_crt0_common@8+0x282>
  4014bb:	a1 20 20 40 00       	mov    0x402020,%eax
  4014c0:	89 02                	mov    %eax,(%edx)
  4014c2:	a1 24 20 40 00       	mov    0x402024,%eax
  4014c7:	89 42 04             	mov    %eax,0x4(%edx)
  4014ca:	a1 28 20 40 00       	mov    0x402028,%eax
  4014cf:	89 42 08             	mov    %eax,0x8(%edx)
  4014d2:	a1 2c 20 40 00       	mov    0x40202c,%eax
  4014d7:	89 42 0c             	mov    %eax,0xc(%edx)
  4014da:	a1 30 20 40 00       	mov    0x402030,%eax
  4014df:	89 42 10             	mov    %eax,0x10(%edx)
  4014e2:	a1 34 20 40 00       	mov    0x402034,%eax
  4014e7:	89 42 14             	mov    %eax,0x14(%edx)
  4014ea:	a1 38 20 40 00       	mov    0x402038,%eax
  4014ef:	89 42 18             	mov    %eax,0x18(%edx)
  4014f2:	a1 3c 20 40 00       	mov    0x40203c,%eax
  4014f7:	89 42 1c             	mov    %eax,0x1c(%edx)
  4014fa:	c7 04 24 00 00 00 00 	movl   $0x0,(%esp)
  401501:	e8 52 03 00 00       	call   401858 <_GetModuleHandleA@4>
  401506:	c7 43 34 00 20 40 00 	movl   $0x402000,0x34(%ebx)
  40150d:	c7 43 38 a8 20 40 00 	movl   $0x4020a8,0x38(%ebx)
  401514:	c7 43 3c 00 50 40 00 	movl   $0x405000,0x3c(%ebx)
  40151b:	c7 43 40 34 51 40 00 	movl   $0x405134,0x40(%ebx)
  401522:	c7 83 94 00 00 00 00 	movl   $0x403000,0x94(%ebx)
  401529:	30 40 00 
  40152c:	89 43 7c             	mov    %eax,0x7c(%ebx)
  40152f:	83 ec 04             	sub    $0x4,%esp
  401532:	c7 83 98 00 00 00 fc 	movl   $0x4030fc,0x98(%ebx)
  401539:	30 40 00 
  40153c:	c7 83 9c 00 00 00 00 	movl   $0x400000,0x9c(%ebx)
  401543:	00 40 00 
  401546:	e8 75 02 00 00       	call   4017c0 <__pei386_runtime_relocator>
  40154b:	8d 65 f8             	lea    -0x8(%ebp),%esp
  40154e:	b8 01 00 00 00       	mov    $0x1,%eax
  401553:	5b                   	pop    %ebx
  401554:	5e                   	pop    %esi
  401555:	5d                   	pop    %ebp
  401556:	c2 08 00             	ret    $0x8
  401559:	8d b4 26 00 00 00 00 	lea    0x0(%esi,%eiz,1),%esi
  401560:	c7 40 04 a8 00 00 00 	movl   $0xa8,0x4(%eax)
  401567:	8b 15 f4 70 40 00    	mov    0x4070f4,%edx
  40156d:	85 c9                	test   %ecx,%ecx
  40156f:	c7 40 08 ef 03 00 00 	movl   $0x3ef,0x8(%eax)
  401576:	89 cb                	mov    %ecx,%ebx
  401578:	c7 40 0c 07 00 00 00 	movl   $0x7,0xc(%eax)
  40157f:	c7 80 80 00 00 00 00 	movl   $0x0,0x80(%eax)
  401586:	00 00 00 
  401589:	c7 80 84 00 00 00 e6 	movl   $0xe6,0x84(%eax)
  401590:	00 00 00 
  401593:	c7 40 2c f8 18 40 00 	movl   $0x4018f8,0x2c(%eax)
  40159a:	c7 40 30 04 19 40 00 	movl   $0x401904,0x30(%eax)
  4015a1:	c7 40 14 20 50 40 00 	movl   $0x405020,0x14(%eax)
  4015a8:	8b 80 a4 00 00 00    	mov    0xa4(%eax),%eax
  4015ae:	89 71 28             	mov    %esi,0x28(%ecx)
  4015b1:	c7 41 48 30 13 40 00 	movl   $0x401330,0x48(%ecx)
  4015b8:	c7 41 4c 40 13 40 00 	movl   $0x401340,0x4c(%ecx)
  4015bf:	89 02                	mov    %eax,(%edx)
  4015c1:	8b 45 00             	mov    0x0(%ebp),%eax
  4015c4:	c7 41 50 50 13 40 00 	movl   $0x401350,0x50(%ecx)
  4015cb:	c7 41 54 60 13 40 00 	movl   $0x401360,0x54(%ecx)
  4015d2:	c7 41 24 24 50 40 00 	movl   $0x405024,0x24(%ecx)
  4015d9:	89 01                	mov    %eax,(%ecx)
  4015db:	c7 41 18 d0 17 40 00 	movl   $0x4017d0,0x18(%ecx)
  4015e2:	c7 41 1c d8 17 40 00 	movl   $0x4017d8,0x1c(%ecx)
  4015e9:	c7 41 20 e0 17 40 00 	movl   $0x4017e0,0x20(%ecx)
  4015f0:	c7 41 44 e8 17 40 00 	movl   $0x4017e8,0x44(%ecx)
  4015f7:	0f 85 3c fe ff ff    	jne    401439 <__cygwin_crt0_common@8+0xb9>
  4015fd:	e9 f8 fe ff ff       	jmp    4014fa <__cygwin_crt0_common@8+0x17a>
  401602:	8b 42 1c             	mov    0x1c(%edx),%eax
  401605:	a3 3c 20 40 00       	mov    %eax,0x40203c
  40160a:	e9 ac fe ff ff       	jmp    4014bb <__cygwin_crt0_common@8+0x13b>
  40160f:	90                   	nop
  401610:	8b 42 18             	mov    0x18(%edx),%eax
  401613:	a3 38 20 40 00       	mov    %eax,0x402038
  401618:	e9 91 fe ff ff       	jmp    4014ae <__cygwin_crt0_common@8+0x12e>
  40161d:	8d 76 00             	lea    0x0(%esi),%esi
  401620:	8b 42 14             	mov    0x14(%edx),%eax
  401623:	a3 34 20 40 00       	mov    %eax,0x402034
  401628:	e9 73 fe ff ff       	jmp    4014a0 <__cygwin_crt0_common@8+0x120>
  40162d:	8d 76 00             	lea    0x0(%esi),%esi
  401630:	8b 42 10             	mov    0x10(%edx),%eax
  401633:	a3 30 20 40 00       	mov    %eax,0x402030
  401638:	e9 55 fe ff ff       	jmp    401492 <__cygwin_crt0_common@8+0x112>
  40163d:	8d 76 00             	lea    0x0(%esi),%esi
  401640:	8b 42 0c             	mov    0xc(%edx),%eax
  401643:	a3 2c 20 40 00       	mov    %eax,0x40202c
  401648:	e9 38 fe ff ff       	jmp    401485 <__cygwin_crt0_common@8+0x105>
  40164d:	8d 76 00             	lea    0x0(%esi),%esi
  401650:	8b 42 08             	mov    0x8(%edx),%eax
  401653:	a3 28 20 40 00       	mov    %eax,0x402028
  401658:	e9 1b fe ff ff       	jmp    401478 <__cygwin_crt0_common@8+0xf8>
  40165d:	8d 76 00             	lea    0x0(%esi),%esi
  401660:	8b 42 04             	mov    0x4(%edx),%eax
  401663:	a3 24 20 40 00       	mov    %eax,0x402024
  401668:	e9 fe fd ff ff       	jmp    40146b <__cygwin_crt0_common@8+0xeb>
  40166d:	8d 76 00             	lea    0x0(%esi),%esi
  401670:	8b 02                	mov    (%edx),%eax
  401672:	a3 20 20 40 00       	mov    %eax,0x402020
  401677:	e9 e2 fd ff ff       	jmp    40145e <__cygwin_crt0_common@8+0xde>
  40167c:	90                   	nop
  40167d:	90                   	nop
  40167e:	90                   	nop
  40167f:	90                   	nop

00401680 <___dllMain>:
  401680:	55                   	push   %ebp
  401681:	89 e5                	mov    %esp,%ebp
  401683:	83 ec 18             	sub    $0x18,%esp
  401686:	a1 50 50 40 00       	mov    0x405050,%eax
  40168b:	89 44 24 08          	mov    %eax,0x8(%esp)
  40168f:	a1 40 50 40 00       	mov    0x405040,%eax
  401694:	89 44 24 04          	mov    %eax,0x4(%esp)
  401698:	a1 30 50 40 00       	mov    0x405030,%eax
  40169d:	89 04 24             	mov    %eax,(%esp)
  4016a0:	e8 9b 01 00 00       	call   401840 <_DllMain@12>
  4016a5:	83 ec 0c             	sub    $0xc,%esp
  4016a8:	c9                   	leave  
  4016a9:	c3                   	ret    
  4016aa:	8d b6 00 00 00 00    	lea    0x0(%esi),%esi

004016b0 <__cygwin_dll_entry@12>:
  4016b0:	55                   	push   %ebp
  4016b1:	89 e5                	mov    %esp,%ebp
  4016b3:	53                   	push   %ebx
  4016b4:	83 ec 14             	sub    $0x14,%esp
  4016b7:	8b 45 0c             	mov    0xc(%ebp),%eax
  4016ba:	8b 4d 08             	mov    0x8(%ebp),%ecx
  4016bd:	8b 55 10             	mov    0x10(%ebp),%edx
  4016c0:	83 f8 01             	cmp    $0x1,%eax
  4016c3:	0f 84 87 00 00 00    	je     401750 <__cygwin_dll_entry@12+0xa0>
  4016c9:	72 18                	jb     4016e3 <__cygwin_dll_entry@12+0x33>
  4016cb:	83 f8 02             	cmp    $0x2,%eax
  4016ce:	74 66                	je     401736 <__cygwin_dll_entry@12+0x86>
  4016d0:	83 f8 03             	cmp    $0x3,%eax
  4016d3:	bb 01 00 00 00       	mov    $0x1,%ebx
  4016d8:	74 46                	je     401720 <__cygwin_dll_entry@12+0x70>
  4016da:	89 d8                	mov    %ebx,%eax
  4016dc:	8b 5d fc             	mov    -0x4(%ebp),%ebx
  4016df:	c9                   	leave  
  4016e0:	c2 0c 00             	ret    $0xc
  4016e3:	89 54 24 08          	mov    %edx,0x8(%esp)
  4016e7:	c7 44 24 04 00 00 00 	movl   $0x0,0x4(%esp)
  4016ee:	00 
  4016ef:	89 0c 24             	mov    %ecx,(%esp)
  4016f2:	e8 49 01 00 00       	call   401840 <_DllMain@12>
  4016f7:	83 ec 0c             	sub    $0xc,%esp
  4016fa:	85 c0                	test   %eax,%eax
  4016fc:	89 c3                	mov    %eax,%ebx
  4016fe:	74 da                	je     4016da <__cygwin_dll_entry@12+0x2a>
  401700:	a1 60 50 40 00       	mov    0x405060,%eax
  401705:	89 04 24             	mov    %eax,(%esp)
  401708:	e8 23 01 00 00       	call   401830 <_cygwin_detach_dll>
  40170d:	c7 05 60 50 40 00 ff 	movl   $0xffffffff,0x405060
  401714:	ff ff ff 
  401717:	eb c1                	jmp    4016da <__cygwin_dll_entry@12+0x2a>
  401719:	8d b4 26 00 00 00 00 	lea    0x0(%esi,%eiz,1),%esi
  401720:	89 55 10             	mov    %edx,0x10(%ebp)
  401723:	8b 5d fc             	mov    -0x4(%ebp),%ebx
  401726:	c7 45 0c 03 00 00 00 	movl   $0x3,0xc(%ebp)
  40172d:	89 4d 08             	mov    %ecx,0x8(%ebp)
  401730:	c9                   	leave  
  401731:	e9 0a 01 00 00       	jmp    401840 <_DllMain@12>
  401736:	89 55 10             	mov    %edx,0x10(%ebp)
  401739:	8b 5d fc             	mov    -0x4(%ebp),%ebx
  40173c:	c7 45 0c 02 00 00 00 	movl   $0x2,0xc(%ebp)
  401743:	89 4d 08             	mov    %ecx,0x8(%ebp)
  401746:	c9                   	leave  
  401747:	e9 f4 00 00 00       	jmp    401840 <_DllMain@12>
  40174c:	8d 74 26 00          	lea    0x0(%esi,%eiz,1),%esi
  401750:	31 c0                	xor    %eax,%eax
  401752:	85 d2                	test   %edx,%edx
  401754:	0f 94 c0             	sete   %al
  401757:	31 db                	xor    %ebx,%ebx
  401759:	89 0d 30 50 40 00    	mov    %ecx,0x405030
  40175f:	c7 05 40 50 40 00 01 	movl   $0x1,0x405040
  401766:	00 00 00 
  401769:	89 15 50 50 40 00    	mov    %edx,0x405050
  40176f:	a3 28 50 40 00       	mov    %eax,0x405028
  401774:	c7 44 24 04 80 16 40 	movl   $0x401680,0x4(%esp)
  40177b:	00 
  40177c:	89 0c 24             	mov    %ecx,(%esp)
  40177f:	e8 6c 00 00 00       	call   4017f0 <_cygwin_attach_dll>
  401784:	83 f8 ff             	cmp    $0xffffffff,%eax
  401787:	0f 95 c3             	setne  %bl
  40178a:	a3 60 50 40 00       	mov    %eax,0x405060
  40178f:	89 d8                	mov    %ebx,%eax
  401791:	8b 5d fc             	mov    -0x4(%ebp),%ebx
  401794:	c9                   	leave  
  401795:	c2 0c 00             	ret    $0xc
  401798:	90                   	nop
  401799:	8d b4 26 00 00 00 00 	lea    0x0(%esi,%eiz,1),%esi

004017a0 <__cygwin_noncygwin_dll_entry@12>:
  4017a0:	55                   	push   %ebp
  4017a1:	89 e5                	mov    %esp,%ebp
  4017a3:	c9                   	leave  
  4017a4:	e9 07 ff ff ff       	jmp    4016b0 <__cygwin_dll_entry@12>
  4017a9:	90                   	nop
  4017aa:	90                   	nop
  4017ab:	90                   	nop
  4017ac:	90                   	nop
  4017ad:	90                   	nop
  4017ae:	90                   	nop
  4017af:	90                   	nop

004017b0 <_cygwin_internal>:
  4017b0:	ff 25 00 71 40 00    	jmp    *0x407100
  4017b6:	90                   	nop
  4017b7:	90                   	nop
	...

004017c0 <__pei386_runtime_relocator>:
  4017c0:	55                   	push   %ebp
  4017c1:	89 e5                	mov    %esp,%ebp
  4017c3:	5d                   	pop    %ebp
  4017c4:	c3                   	ret    
  4017c5:	90                   	nop
  4017c6:	90                   	nop
  4017c7:	90                   	nop
  4017c8:	90                   	nop
  4017c9:	90                   	nop
  4017ca:	90                   	nop
  4017cb:	90                   	nop
  4017cc:	90                   	nop
  4017cd:	90                   	nop
  4017ce:	90                   	nop
  4017cf:	90                   	nop

004017d0 <_malloc>:
  4017d0:	ff 25 0c 71 40 00    	jmp    *0x40710c
  4017d6:	90                   	nop
  4017d7:	90                   	nop

004017d8 <_free>:
  4017d8:	ff 25 08 71 40 00    	jmp    *0x407108
  4017de:	90                   	nop
  4017df:	90                   	nop

004017e0 <_realloc>:
  4017e0:	ff 25 10 71 40 00    	jmp    *0x407110
  4017e6:	90                   	nop
  4017e7:	90                   	nop

004017e8 <_calloc>:
  4017e8:	ff 25 f8 70 40 00    	jmp    *0x4070f8
  4017ee:	90                   	nop
  4017ef:	90                   	nop

004017f0 <_cygwin_attach_dll>:
  4017f0:	55                   	push   %ebp
  4017f1:	89 e5                	mov    %esp,%ebp
  4017f3:	53                   	push   %ebx
  4017f4:	83 ec 14             	sub    $0x14,%esp
  4017f7:	8b 5d 08             	mov    0x8(%ebp),%ebx
  4017fa:	c7 44 24 04 70 50 40 	movl   $0x405070,0x4(%esp)
  401801:	00 
  401802:	8b 45 0c             	mov    0xc(%ebp),%eax
  401805:	89 04 24             	mov    %eax,(%esp)
  401808:	e8 73 fb ff ff       	call   401380 <__cygwin_crt0_common@8>
  40180d:	89 5d 08             	mov    %ebx,0x8(%ebp)
  401810:	8b 5d fc             	mov    -0x4(%ebp),%ebx
  401813:	c7 45 0c 70 50 40 00 	movl   $0x405070,0xc(%ebp)
  40181a:	83 ec 08             	sub    $0x8,%esp
  40181d:	c9                   	leave  
  40181e:	e9 2d 00 00 00       	jmp    401850 <_dll_dllcrt0>
  401823:	90                   	nop
  401824:	90                   	nop
  401825:	90                   	nop
  401826:	90                   	nop
  401827:	90                   	nop
  401828:	90                   	nop
  401829:	90                   	nop
  40182a:	90                   	nop
  40182b:	90                   	nop
  40182c:	90                   	nop
  40182d:	90                   	nop
  40182e:	90                   	nop
  40182f:	90                   	nop

00401830 <_cygwin_detach_dll>:
  401830:	ff 25 fc 70 40 00    	jmp    *0x4070fc
  401836:	90                   	nop
  401837:	90                   	nop
	...

00401840 <_DllMain@12>:
  401840:	55                   	push   %ebp
  401841:	b8 01 00 00 00       	mov    $0x1,%eax
  401846:	89 e5                	mov    %esp,%ebp
  401848:	5d                   	pop    %ebp
  401849:	c2 0c 00             	ret    $0xc
  40184c:	90                   	nop
  40184d:	90                   	nop
  40184e:	90                   	nop
  40184f:	90                   	nop

00401850 <_dll_dllcrt0>:
  401850:	ff 25 04 71 40 00    	jmp    *0x407104
  401856:	90                   	nop
  401857:	90                   	nop

00401858 <_GetModuleHandleA@4>:
  401858:	ff 25 24 71 40 00    	jmp    *0x407124
  40185e:	90                   	nop
  40185f:	90                   	nop

00401860 <_GetProcAddress@8>:
  401860:	ff 25 28 71 40 00    	jmp    *0x407128
  401866:	90                   	nop
  401867:	90                   	nop

00401868 <.text>:
	...

00401870 <_register_frame_ctor>:
  401870:	55                   	push   %ebp
  401871:	89 e5                	mov    %esp,%ebp
  401873:	5d                   	pop    %ebp
  401874:	e9 37 f8 ff ff       	jmp    4010b0 <___gcc_register_frame>
  401879:	8d b4 26 00 00 00 00 	lea    0x0(%esi,%eiz,1),%esi

00401880 <_deregister_frame_dtor>:
  401880:	55                   	push   %ebp
  401881:	89 e5                	mov    %esp,%ebp
  401883:	5d                   	pop    %ebp
  401884:	e9 c7 f8 ff ff       	jmp    401150 <___gcc_deregister_frame>
  401889:	90                   	nop
  40188a:	90                   	nop
  40188b:	90                   	nop
  40188c:	90                   	nop
  40188d:	90                   	nop
  40188e:	90                   	nop
  40188f:	90                   	nop

00401890 <_Perl_debop>:
  401890:	ff 25 3c 71 40 00    	jmp    *0x40713c
  401896:	90                   	nop
  401897:	90                   	nop

00401898 <_Perl_debstack>:
  401898:	ff 25 40 71 40 00    	jmp    *0x407140
  40189e:	90                   	nop
  40189f:	90                   	nop

004018a0 <_Perl_despatch_signals>:
  4018a0:	ff 25 44 71 40 00    	jmp    *0x407144
  4018a6:	90                   	nop
  4018a7:	90                   	nop

004018a8 <_Perl_pp_cond_expr>:
  4018a8:	ff 25 48 71 40 00    	jmp    *0x407148
  4018ae:	90                   	nop
  4018af:	90                   	nop

004018b0 <_Perl_pp_const>:
  4018b0:	ff 25 4c 71 40 00    	jmp    *0x40714c
  4018b6:	90                   	nop
  4018b7:	90                   	nop

004018b8 <_Perl_pp_enter>:
  4018b8:	ff 25 50 71 40 00    	jmp    *0x407150
  4018be:	90                   	nop
  4018bf:	90                   	nop

004018c0 <_Perl_pp_gt>:
  4018c0:	ff 25 54 71 40 00    	jmp    *0x407154
  4018c6:	90                   	nop
  4018c7:	90                   	nop

004018c8 <_Perl_pp_leave>:
  4018c8:	ff 25 58 71 40 00    	jmp    *0x407158
  4018ce:	90                   	nop
  4018cf:	90                   	nop

004018d0 <_Perl_pp_nextstate>:
  4018d0:	ff 25 5c 71 40 00    	jmp    *0x40715c
  4018d6:	90                   	nop
  4018d7:	90                   	nop

004018d8 <_Perl_pp_padsv>:
  4018d8:	ff 25 60 71 40 00    	jmp    *0x407160
  4018de:	90                   	nop
  4018df:	90                   	nop

004018e0 <_Perl_pp_print>:
  4018e0:	ff 25 64 71 40 00    	jmp    *0x407164
  4018e6:	90                   	nop
  4018e7:	90                   	nop

004018e8 <_Perl_pp_pushmark>:
  4018e8:	ff 25 68 71 40 00    	jmp    *0x407168
  4018ee:	90                   	nop
  4018ef:	90                   	nop

004018f0 <_Perl_pp_sassign>:
  4018f0:	ff 25 6c 71 40 00    	jmp    *0x40716c
  4018f6:	90                   	nop
  4018f7:	90                   	nop

004018f8 <__CTOR_LIST__>:
  4018f8:	ff                   	(bad)  
  4018f9:	ff                   	(bad)  
  4018fa:	ff                   	(bad)  
  4018fb:	ff 70 18             	pushl  0x18(%eax)

004018fc <.ctors.65535>:
  4018fc:	70 18                	jo     401916 <.dtors.65535+0xe>
  4018fe:	40                   	inc    %eax
  4018ff:	00 00                	add    %al,(%eax)
  401901:	00 00                	add    %al,(%eax)
	...

00401904 <__DTOR_LIST__>:
  401904:	ff                   	(bad)  
  401905:	ff                   	(bad)  
  401906:	ff                   	(bad)  
  401907:	ff 80 18 40 00 00    	incl   0x4018(%eax)

00401908 <.dtors.65535>:
  401908:	80 18 40             	sbbb   $0x40,(%eax)
  40190b:	00 00                	add    %al,(%eax)
  40190d:	00 00                	add    %al,(%eax)
	...
